; ModuleID = '<stdin>'
target datalayout = "e-p:32:32-i64:64-v128:32:128-n32-S128"
target triple = "i386-unknown-emscripten"

%str_slice = type { i8*, i32 }
%"2.core::marker::PhantomData<(&'static str, mithril::mithril::core::AttributeValue)>" = type {}
%"8.webplatform::Event" = type { %"2.core::option::Option<webplatform::HtmlNode>" }
%"2.core::option::Option<webplatform::HtmlNode>" = type { i32, [0 x i32], [3 x i32] }
%"2.core::nonzero::NonZero<*const std::ffi::c_str::CString>" = type { %"1.std::ffi::c_str::CString"* }
%"1.std::ffi::c_str::CString" = type { %"3.collections::vec::Vec<u8>" }
%"3.collections::vec::Vec<u8>" = type { %"2.core::ptr::Unique<u8>", i32, i32 }
%"2.core::ptr::Unique<u8>" = type { %"2.core::nonzero::NonZero<*const u8>", %"2.core::marker::PhantomData<(&'static str, mithril::mithril::core::AttributeValue)>" }
%"2.core::nonzero::NonZero<*const u8>" = type { i8* }
%"2.core::fmt::Arguments" = type { { %str_slice*, i32 }, %"2.core::option::Option<&'static [core::fmt::rt::v1::Argument]>", { %"2.core::fmt::ArgumentV1"*, i32 } }
%"2.core::option::Option<&'static [core::fmt::rt::v1::Argument]>" = type { { %"2.core::fmt::rt::v1::Argument"*, i32 } }
%"2.core::fmt::rt::v1::Argument" = type { %"2.core::option::Option<usize>", %"2.core::fmt::rt::v1::FormatSpec" }
%"2.core::option::Option<usize>" = type { i32, [0 x i32], [1 x i32] }
%"2.core::fmt::rt::v1::FormatSpec" = type { i32, i8, i32, %"2.core::option::Option<usize>", %"2.core::option::Option<usize>" }
%"2.core::fmt::ArgumentV1" = type { %"2.core::marker::PhantomData<(&'static str, mithril::mithril::core::AttributeValue)>"*, i8 (%"2.core::marker::PhantomData<(&'static str, mithril::mithril::core::AttributeValue)>"*, %"2.core::fmt::Formatter"*)* }
%"2.core::fmt::Formatter" = type { i32, i32, i8, %"2.core::option::Option<usize>", %"2.core::option::Option<usize>", { i8*, void (i8*)** }, %"2.core::slice::Iter<core::fmt::ArgumentV1>", { %"2.core::fmt::ArgumentV1"*, i32 } }
%"2.core::slice::Iter<core::fmt::ArgumentV1>" = type { %"2.core::fmt::ArgumentV1"*, %"2.core::fmt::ArgumentV1"*, %"2.core::marker::PhantomData<(&'static str, mithril::mithril::core::AttributeValue)>" }
%"1.core::cell::RefCell<core::option::Option<Box<old_io::Writer + Send>>>" = type { %"1.core::cell::UnsafeCell<core::option::Option<Box<old_io::Writer + Send>>>", %"2.core::cell::Cell<usize>" }
%"1.core::cell::UnsafeCell<core::option::Option<Box<old_io::Writer + Send>>>" = type { %"thunk::Thunk<(), ()>" }
%"thunk::Thunk<(), ()>" = type { { i8*, void (i8*)** } }
%"2.core::cell::Cell<usize>" = type { %"2.core::cell::UnsafeCell<usize>" }
%"2.core::cell::UnsafeCell<usize>" = type { i32 }
%"old_io::buffered::LineBufferedWriter<old_io::stdio::StdWriter>" = type { %"old_io::buffered::BufferedWriter<old_io::stdio::StdWriter>" }
%"old_io::buffered::BufferedWriter<old_io::stdio::StdWriter>" = type { %"2.core::option::Option<webplatform::HtmlNode>", %"3.collections::vec::Vec<u8>", i32, i8 }
%"1.core::result::Result<(), old_io::IoError>" = type { %"old_io::IoError" }
%"old_io::IoError" = type { %"2.core::option::Option<usize>", %str_slice, %"2.core::option::Option<collections::string::String>" }
%"2.core::option::Option<collections::string::String>" = type { %"1.std::ffi::c_str::CString" }
%"old_io::Writer::write_fmt::Adaptor<rt::util::Stdio>" = type { %"2.core::cell::UnsafeCell<usize>"*, %"1.core::result::Result<(), old_io::IoError>" }
%"1.core::fmt::Write::write_fmt::Adapter<rt::util::abort::BufWriter>" = type { %"old_io::mem::BufWriter"* }
%"old_io::mem::BufWriter" = type { { i8*, i32 }, i32 }
%"1.core::cell::RefCell<core::option::Option<sys_common::thread_info::ThreadInfo>>" = type { %"8.webplatform::Event", %"2.core::cell::Cell<usize>" }
%"1.core::fmt::Write::write_fmt::Adapter<old_io::Writer::write_fmt::Adaptor<rt::util::Stdio>>" = type { %"old_io::Writer::write_fmt::Adaptor<rt::util::Stdio>"* }
%"old_io::Writer::write_fmt::Adaptor<old_io::buffered::LineBufferedWriter<old_io::stdio::StdWriter>>" = type { %"old_io::buffered::LineBufferedWriter<old_io::stdio::StdWriter>"*, %"1.core::result::Result<(), old_io::IoError>" }
%"1.core::fmt::Write::write_fmt::Adapter<old_io::Writer::write_fmt::Adaptor<old_io::buffered::LineBufferedWriter<old_io::stdio::StdWriter>>>" = type { %"old_io::Writer::write_fmt::Adaptor<old_io::buffered::LineBufferedWriter<old_io::stdio::StdWriter>>"* }
%"3.collections::vec::Vec<std::ffi::c_str::CString>" = type { %"2.core::ptr::Unique<std::ffi::c_str::CString>", i32, i32 }
%"2.core::ptr::Unique<std::ffi::c_str::CString>" = type { %"2.core::nonzero::NonZero<*const std::ffi::c_str::CString>", %"2.core::marker::PhantomData<(&'static str, mithril::mithril::core::AttributeValue)>" }
%"10.mithril::mithril::core::Node" = type { i32, [0 x i32], [8 x i32] }
%"8.webplatform::Document" = type { %"5.alloc::rc::Rc<core::cell::RefCell<collections::vec::Vec<Box<core::ops::FnMut(webplatform::Event)>>>>" }
%"5.alloc::rc::Rc<core::cell::RefCell<collections::vec::Vec<Box<core::ops::FnMut(webplatform::Event)>>>>" = type { %"2.core::nonzero::NonZero<*mut alloc::rc::RcBox<core::cell::RefCell<collections::vec::Vec<Box<core::ops::FnMut(webplatform::Event)>>>>>" }
%"2.core::nonzero::NonZero<*mut alloc::rc::RcBox<core::cell::RefCell<collections::vec::Vec<Box<core::ops::FnMut(webplatform::Event)>>>>>" = type { %"5.alloc::rc::RcBox<core::cell::RefCell<collections::vec::Vec<Box<core::ops::FnMut(webplatform::Event)>>>>"* }
%"5.alloc::rc::RcBox<core::cell::RefCell<collections::vec::Vec<Box<core::ops::FnMut(webplatform::Event)>>>>" = type { %"2.core::cell::RefCell<collections::vec::Vec<Box<core::ops::FnMut(webplatform::Event)>>>", %"2.core::cell::Cell<usize>", %"2.core::cell::Cell<usize>" }
%"2.core::cell::RefCell<collections::vec::Vec<Box<core::ops::FnMut(webplatform::Event)>>>" = type { %"2.core::cell::UnsafeCell<collections::vec::Vec<Box<core::ops::FnMut(webplatform::Event)>>>", %"2.core::cell::Cell<usize>" }
%"2.core::cell::UnsafeCell<collections::vec::Vec<Box<core::ops::FnMut(webplatform::Event)>>>" = type { %"3.collections::vec::Vec<Box<core::ops::FnMut(webplatform::Event)>>" }
%"3.collections::vec::Vec<Box<core::ops::FnMut(webplatform::Event)>>" = type { %"2.core::ptr::Unique<Box<core::ops::FnMut(webplatform::Event)>>", i32, i32 }
%"2.core::ptr::Unique<Box<core::ops::FnMut(webplatform::Event)>>" = type { %"2.core::nonzero::NonZero<*const Box<core::ops::FnMut(webplatform::Event)>>", %"2.core::marker::PhantomData<Box<core::ops::FnMut(webplatform::Event)>>" }
%"2.core::nonzero::NonZero<*const Box<core::ops::FnMut(webplatform::Event)>>" = type { { i8*, void (i8*)** }* }
%"2.core::marker::PhantomData<Box<core::ops::FnMut(webplatform::Event)>>" = type {}
%"8.webplatform::HtmlNode" = type { i32, %"8.webplatform::Document"*, i8 }
%"1.core::iter::Map<core::ops::Range<isize>, [closure((isize,)) -> collections::vec::Vec<u8>]>" = type { %"5.libc::types::os::common::posix01::timespec", %closure.535 }
%"5.libc::types::os::common::posix01::timespec" = type { i32, i32 }
%closure.535 = type { i8*** }
%"1.core::option::Option<collections::vec::Vec<collections::vec::Vec<u8>>>" = type { %"2.collections::vec::Vec<collections::vec::Vec<u8>>" }
%"2.collections::vec::Vec<collections::vec::Vec<u8>>" = type { %"1.core::ptr::Unique<collections::vec::Vec<u8>>", i32, i32 }
%"1.core::ptr::Unique<collections::vec::Vec<u8>>" = type { %"1.core::nonzero::NonZero<*const collections::vec::Vec<u8>>", %"2.core::marker::PhantomData<(&'static str, mithril::mithril::core::AttributeValue)>" }
%"1.core::nonzero::NonZero<*const collections::vec::Vec<u8>>" = type { %"3.collections::vec::Vec<u8>"* }
%"2.collections::string::FromUtf8Error" = type { %"3.collections::vec::Vec<u8>", %"2.core::option::Option<usize>" }
%"3.collections::vec::IntoIter<mithril::core::Node>" = type { %"10.mithril::mithril::core::Node"*, i32, %"10.mithril::mithril::core::Node"*, %"10.mithril::mithril::core::Node"*, i8 }
%"3.collections::vec::Vec<mithril::mithril::core::Node>" = type { %"2.core::ptr::Unique<mithril::mithril::core::Node>", i32, i32 }
%"2.core::ptr::Unique<mithril::mithril::core::Node>" = type { %"2.core::nonzero::NonZero<*const mithril::mithril::core::Node>", %"2.core::marker::PhantomData<mithril::mithril::core::Node>" }
%"2.core::nonzero::NonZero<*const mithril::mithril::core::Node>" = type { %"10.mithril::mithril::core::Node"* }
%"2.core::marker::PhantomData<mithril::mithril::core::Node>" = type {}
%"10.mithril::mithril::core::Element" = type { %str_slice, %"3.collections::vec::Vec<(&'static str, mithril::mithril::core::AttributeValue)>", %"3.collections::vec::Vec<mithril::mithril::core::Node>" }
%"3.collections::vec::Vec<(&'static str, mithril::mithril::core::AttributeValue)>" = type { %"2.core::ptr::Unique<(&'static str, mithril::mithril::core::AttributeValue)>", i32, i32 }
%"2.core::ptr::Unique<(&'static str, mithril::mithril::core::AttributeValue)>" = type { %"2.core::nonzero::NonZero<*const (&'static str, mithril::mithril::core::AttributeValue)>", %"2.core::marker::PhantomData<(&'static str, mithril::mithril::core::AttributeValue)>" }
%"2.core::nonzero::NonZero<*const (&'static str, mithril::mithril::core::AttributeValue)>" = type { { %str_slice, %"10.mithril::mithril::core::AttributeValue" }* }
%"10.mithril::mithril::core::AttributeValue" = type { %str_slice }
%"2.core::result::Result<&'static str, core::str::Utf8Error>" = type { i32, [0 x i32], [2 x i32] }
%"2.core::result::Result<std::ffi::c_str::CString, std::ffi::c_str::NulError>" = type { i32, [0 x i32], [4 x i32] }
%"1.std::ffi::c_str::NulError" = type { i32, %"3.collections::vec::Vec<u8>" }
%"old_io::stdio::StdReader" = type { %"2.core::result::Result<&'static str, core::str::Utf8Error>" }
%"sys::fs::FileDesc" = type { i32, i8, i8 }

@str1198 = internal constant [5 x i8] c"Hello"
@const28 = internal unnamed_addr constant { %str_slice } { %str_slice { i8* getelementptr inbounds ([5 x i8]* @str1198, i32 0, i32 0), i32 5 } }
@str1297 = internal constant [3 x i8] c"div"
@const43 = internal unnamed_addr constant %str_slice { i8* getelementptr inbounds ([3 x i8]* @str1297, i32 0, i32 0), i32 3 }
@str1529 = internal constant [5 x i8] c"class"
@str1530 = internal constant [4 x i8] c"unko"
@const50 = internal unnamed_addr constant { { %str_slice, { %str_slice } } } { { %str_slice, { %str_slice } } { %str_slice { i8* getelementptr inbounds ([5 x i8]* @str1529, i32 0, i32 0), i32 5 }, { %str_slice } { %str_slice { i8* getelementptr inbounds ([4 x i8]* @str1530, i32 0, i32 0), i32 4 } } } }
@str1546 = internal constant [1 x i8] c"p"
@const65 = internal unnamed_addr constant %str_slice { i8* getelementptr inbounds ([1 x i8]* @str1546, i32 0, i32 0), i32 1 }
@str1550 = internal constant [5 x i8] c"world"
@const100 = internal unnamed_addr constant { { i32, %str_slice, [24 x i8] } } { { i32, %str_slice, [24 x i8] } { i32 0, %str_slice { i8* getelementptr inbounds ([5 x i8]* @str1550, i32 0, i32 0), i32 5 }, [24 x i8] undef } }
@str1551 = internal constant [5 x i8] c"input"
@const106 = internal unnamed_addr constant %str_slice { i8* getelementptr inbounds ([5 x i8]* @str1551, i32 0, i32 0), i32 5 }
@str1552 = internal constant [5 x i8] c"value"
@const115 = internal unnamed_addr constant %str_slice { i8* getelementptr inbounds ([5 x i8]* @str1552, i32 0, i32 0), i32 5 }
@str1553 = internal constant [8 x i8] c"onchange"
@const120 = internal unnamed_addr constant { %str_slice, { { i8*, i8* } } } { %str_slice { i8* getelementptr inbounds ([8 x i8]* @str1553, i32 0, i32 0), i32 8 }, { { i8*, i8* } } zeroinitializer }
@str1601 = internal constant [4 x i8] c"body"
@const152 = internal unnamed_addr constant %str_slice { i8* getelementptr inbounds ([4 x i8]* @str1601, i32 0, i32 0), i32 4 }
@const220 = internal unnamed_addr constant %str_slice { i8* getelementptr inbounds ([5 x i8]* @str2228, i32 0, i32 0), i32 5 }
@const1245 = internal unnamed_addr constant { i8*, i32 } { i8* getelementptr inbounds ([246 x i8]* @binary1245, i32 0, i32 0), i32 246 }
@vtable63548 = internal unnamed_addr constant { void (i8*)*, i32, i32, void (%"2.core::marker::PhantomData<(&'static str, mithril::mithril::core::AttributeValue)>"*, %"8.webplatform::Event"*)* } { void (i8*)* @_ZN2i814glue_drop.203217h4b988e373d2158b2E, i32 0, i32 1, void (%"2.core::marker::PhantomData<(&'static str, mithril::mithril::core::AttributeValue)>"*, %"8.webplatform::Event"*)* @_ZN7mithril6render6render12closure.2046E }
@_ZN7mithril6render6render15__STATIC_FMTSTR20h878d29e19237a81d4daE = internal unnamed_addr constant { %str_slice*, i32 } { %str_slice* getelementptr inbounds ([1 x %str_slice]* @ref249, i32 0, i32 0), i32 1 }
@const259 = internal unnamed_addr constant %str_slice { i8* getelementptr inbounds ([5 x i8]* @str2239, i32 0, i32 0), i32 5 }
@str2239 = internal constant [5 x i8] c"value"
@ref249 = internal unnamed_addr constant [1 x %str_slice] [%str_slice { i8* getelementptr inbounds ([0 x i8]* @str2237, i32 0, i32 0), i32 0 }]
@str2237 = internal constant [0 x i8] zeroinitializer
@binary1245 = internal unnamed_addr constant [246 x i8] c"\0A                WEBPLATFORM.rs_refs[$0].addEventListener(UTF8ToString($1), function (e) {\0A                    Runtime.dynCall('viii', $3, [$2, $4, e.target ? WEBPLATFORM.rs_refs.push(e.target) - 1 : -1]);\0A                }, false);\0A            \00"
@str2228 = internal constant [5 x i8] c"input"
@"_ZN27HtmlNode$LT$$u27$a$GT$.Drop4drop15__STATIC_FMTSTR20hc7c976a00d77dd6dKdaE" = internal unnamed_addr constant { %str_slice*, i32 } { %str_slice* getelementptr inbounds ([1 x %str_slice]* @ref229, i32 0, i32 0), i32 1 }
@const531 = internal unnamed_addr constant { i8*, i32 } { i8* getelementptr inbounds ([76 x i8]* @binary531, i32 0, i32 0), i32 76 }
@const1086 = internal unnamed_addr constant { i8*, i32 } { i8* getelementptr inbounds ([84 x i8]* @binary1086, i32 0, i32 0), i32 84 }
@const1176 = internal unnamed_addr constant { i8*, i32 } { i8* getelementptr inbounds ([121 x i8]* @binary1176, i32 0, i32 0), i32 121 }
@const1229 = internal unnamed_addr constant { i8*, i32 } { i8* getelementptr inbounds ([84 x i8]* @binary1229, i32 0, i32 0), i32 84 }
@const1637 = internal unnamed_addr constant { i8*, i32 } { i8* getelementptr inbounds ([199 x i8]* @binary1637, i32 0, i32 0), i32 199 }
@const1826 = internal unnamed_addr constant { i8*, i32 } { i8* getelementptr inbounds ([199 x i8]* @binary1826, i32 0, i32 0), i32 199 }
@const2151 = internal unnamed_addr constant { i8*, i32 } { i8* getelementptr inbounds ([93 x i8]* @binary2151, i32 0, i32 0), i32 93 }
@binary2151 = internal unnamed_addr constant [93 x i8] c"\0A        this.WEBPLATFORM || (this.WEBPLATFORM = {\0A            rs_refs: [],\0A        });\0A    \00"
@binary1826 = internal unnamed_addr constant [199 x i8] c"\0A            var value = document.querySelector(UTF8ToString($0));\0A            if (!value) {\0A                return -1;\0A            }\0A            return WEBPLATFORM.rs_refs.push(value) - 1;\0A        \00"
@binary1637 = internal unnamed_addr constant [199 x i8] c"\0A            var value = document.createElement(UTF8ToString($0));\0A            if (!value) {\0A                return -1;\0A            }\0A            return WEBPLATFORM.rs_refs.push(value) - 1;\0A        \00"
@binary1229 = internal unnamed_addr constant [84 x i8] c"\0A            WEBPLATFORM.rs_refs[$0].appendChild(WEBPLATFORM.rs_refs[$1]);\0A        \00"
@binary1176 = internal unnamed_addr constant [121 x i8] c"\0A            return allocate(intArrayFromString(WEBPLATFORM.rs_refs[$0][UTF8ToString($1)]), 'i8', ALLOC_STACK);\0A        \00"
@binary1086 = internal unnamed_addr constant [84 x i8] c"\0A            WEBPLATFORM.rs_refs[$0][UTF8ToString($1)] = UTF8ToString($2);\0A        \00"
@binary531 = internal unnamed_addr constant [76 x i8] c"\0A            WEBPLATFORM.rs_refs[$0].innerHTML = UTF8ToString($1);\0A        \00"
@ref229 = internal unnamed_addr constant [1 x %str_slice] [%str_slice { i8* getelementptr inbounds ([19 x i8]* @str4820, i32 0, i32 0), i32 19 }]
@str4820 = internal constant [19 x i8] c"dropping HTML NODE "
@_ZN6old_io6Writer10write_uint15__STATIC_FMTSTR20hd053235b0f393fc3zciE = internal unnamed_addr constant { %str_slice*, i32 } { %str_slice* getelementptr inbounds ([1 x %str_slice]* @ref6438, i32 0, i32 0), i32 1 }
@_ZN2rt12unwind_dummy9PANICKING20h5e648feb9c9f0756v6GE = internal unnamed_addr global { { { i8, [1 x i8] } }, i8 ()* } { { { i8, [1 x i8] } } { { i8, [1 x i8] } { i8 0, [1 x i8] undef } }, i8 ()* @_ZN2rt12unwind_dummy9PANICKING6__init20hfd41575106de49ecG6GE }
@_ZN2rt12unwind_dummy18begin_unwind_inner4INIT20he6b9854b641b41964aHE = internal global { { { %"2.core::marker::PhantomData<(&'static str, mithril::mithril::core::AttributeValue)>" }, { { i1 } } }, { { i32 } }, { { i32 } } } zeroinitializer
@_ZN2rt12unwind_dummy12CALLBACK_CNT20hd1c4fcb4cf594124s6GE = internal global { { i32 } } zeroinitializer
@_ZN2rt12unwind_dummy9CALLBACKS20hc44eead5bcb6a9e175GE = internal global { { { i32 } }, { { i32 } }, { { i32 } }, { { i32 } }, { { i32 } }, { { i32 } }, { { i32 } }, { { i32 } }, { { i32 } }, { { i32 } }, { { i32 } }, { { i32 } }, { { i32 } }, { { i32 } }, { { i32 } }, { { i32 } } } zeroinitializer
@_ZN2rt11at_exit_imp4init15__STATIC_FMTSTR20hd053235b0f393fc3EgHE = internal unnamed_addr constant { %str_slice*, i32 } { %str_slice* getelementptr inbounds ([1 x %str_slice]* @ref126443, i32 0, i32 0), i32 1 }
@ref127114 = internal unnamed_addr constant %str_slice { i8* getelementptr inbounds ([9 x i8]* @str45071, i32 0, i32 0), i32 9 }
@_ZN2rt12unwind_dummy18begin_unwind_inner15__STATIC_FMTSTR20hd053235b0f393fc3OcHE = internal unnamed_addr constant { %str_slice*, i32 } { %str_slice* getelementptr inbounds ([1 x %str_slice]* @ref127023, i32 0, i32 0), i32 1 }
@vtable112200106 = internal unnamed_addr constant { void (i8*)*, i32, i32, i8 (%"2.core::nonzero::NonZero<*const std::ffi::c_str::CString>"*, %str_slice*)*, i8 (%"2.core::nonzero::NonZero<*const std::ffi::c_str::CString>"*, %"2.core::fmt::Arguments"*)* } { void (i8*)* @_ZN2i815glue_drop.4010117h5300e9124f9f4bbeE, i32 4, i32 4, i8 (%"2.core::nonzero::NonZero<*const std::ffi::c_str::CString>"*, %str_slice*)* @"_ZN3fmt5Write9write_fmt36Adapter$LT$$u27$a$C$$u20$T$GT$.Write9write_str20h2202420066801881707E", i8 (%"2.core::nonzero::NonZero<*const std::ffi::c_str::CString>"*, %"2.core::fmt::Arguments"*)* @"_ZN3fmt5Write9write_fmt36Adapter$LT$$u27$a$C$$u20$T$GT$.Write9write_fmt20h8177648532823652273E" }
@vtable68335270 = internal unnamed_addr constant { void (%"1.std::ffi::c_str::CString"**)*, i32, i32, i64 (%"1.std::ffi::c_str::CString"*)* } { void (%"1.std::ffi::c_str::CString"**)* @"_ZN38Box$LT$collections..string..String$GT$15glue_drop.4506317hcbf38b460edac22aE", i32 12, i32 4, i64 (%"1.std::ffi::c_str::CString"*)* @_ZN3any5T.Any11get_type_id21h11915170965303846307E }
@const127141 = internal unnamed_addr constant %str_slice { i8* getelementptr inbounds ([19 x i8]* @str45072, i32 0, i32 0), i32 19 }
@_ZN2rt12unwind_dummy19rust_eh_personality10_FILE_LINE20h78521bb307daad5dTeHE = internal constant { %str_slice, i32 } { %str_slice { i8* getelementptr inbounds ([29 x i8]* @str45070, i32 0, i32 0), i32 29 }, i32 144 }
@const131707 = internal unnamed_addr constant %str_slice { i8* getelementptr inbounds ([17 x i8]* @str39763, i32 0, i32 0), i32 17 }
@_ZN3ffi5c_str27NulError...core..fmt..Debug3fmt15__STATIC_FMTSTR20hd053235b0f393fc3s6bE = internal unnamed_addr constant { %str_slice*, i32 } { %str_slice* getelementptr inbounds ([3 x %str_slice]* @ref7465, i32 0, i32 0), i32 3 }
@const115176 = internal unnamed_addr constant { { i32, [4 x i8] }, %str_slice } { { i32, [4 x i8] } { i32 0, [4 x i8] undef }, %str_slice { i8* getelementptr inbounds ([13 x i8]* @str42390, i32 0, i32 0), i32 13 } }
@const115172 = internal unnamed_addr constant { { i32, [4 x i8] }, %str_slice } { { i32, [4 x i8] } { i32 14, [4 x i8] undef }, %str_slice { i8* getelementptr inbounds ([32 x i8]* @str44720, i32 0, i32 0), i32 32 } }
@const115161 = internal unnamed_addr constant { { i32, [4 x i8] }, %str_slice } { { i32, [4 x i8] } { i32 11, [4 x i8] undef }, %str_slice { i8* getelementptr inbounds ([19 x i8]* @str44719, i32 0, i32 0), i32 19 } }
@const115157 = internal unnamed_addr constant { { i32, [4 x i8] }, %str_slice } { { i32, [4 x i8] } { i32 17, [4 x i8] undef }, %str_slice { i8* getelementptr inbounds ([17 x i8]* @str44718, i32 0, i32 0), i32 17 } }
@const115153 = internal unnamed_addr constant { { i32, [4 x i8] }, %str_slice } { { i32, [4 x i8] } { i32 17, [4 x i8] undef }, %str_slice { i8* getelementptr inbounds ([19 x i8]* @str42429, i32 0, i32 0), i32 19 } }
@const115149 = internal unnamed_addr constant { { i32, [4 x i8] }, %str_slice } { { i32, [4 x i8] } { i32 13, [4 x i8] undef }, %str_slice { i8* getelementptr inbounds ([28 x i8]* @str44710, i32 0, i32 0), i32 28 } }
@const115145 = internal unnamed_addr constant { { i32, [4 x i8] }, %str_slice } { { i32, [4 x i8] } { i32 16, [4 x i8] undef }, %str_slice { i8* getelementptr inbounds ([16 x i8]* @str44717, i32 0, i32 0), i32 16 } }
@const115141 = internal unnamed_addr constant { { i32, [4 x i8] }, %str_slice } { { i32, [4 x i8] } { i32 15, [4 x i8] undef }, %str_slice { i8* getelementptr inbounds ([24 x i8]* @str44716, i32 0, i32 0), i32 24 } }
@const115137 = internal unnamed_addr constant { { i32, [4 x i8] }, %str_slice } { { i32, [4 x i8] } { i32 16, [4 x i8] undef }, %str_slice { i8* getelementptr inbounds ([32 x i8]* @str44715, i32 0, i32 0), i32 32 } }
@const115133 = internal unnamed_addr constant { { i32, [4 x i8] }, %str_slice } { { i32, [4 x i8] } { i32 2, [4 x i8] undef }, %str_slice { i8* getelementptr inbounds ([25 x i8]* @str44714, i32 0, i32 0), i32 25 } }
@const115129 = internal unnamed_addr constant { { i32, [4 x i8] }, %str_slice } { { i32, [4 x i8] } { i32 6, [4 x i8] undef }, %str_slice { i8* getelementptr inbounds ([14 x i8]* @str44713, i32 0, i32 0), i32 14 } }
@const115125 = internal unnamed_addr constant { { i32, [4 x i8] }, %str_slice } { { i32, [4 x i8] } { i32 6, [4 x i8] undef }, %str_slice { i8* getelementptr inbounds ([21 x i8]* @str44712, i32 0, i32 0), i32 21 } }
@const115121 = internal unnamed_addr constant { { i32, [4 x i8] }, %str_slice } { { i32, [4 x i8] } { i32 8, [4 x i8] undef }, %str_slice { i8* getelementptr inbounds ([18 x i8]* @str42422, i32 0, i32 0), i32 18 } }
@const115117 = internal unnamed_addr constant { { i32, [4 x i8] }, %str_slice } { { i32, [4 x i8] } { i32 9, [4 x i8] undef }, %str_slice { i8* getelementptr inbounds ([13 x i8]* @str42423, i32 0, i32 0), i32 13 } }
@const115113 = internal unnamed_addr constant { { i32, [4 x i8] }, %str_slice } { { i32, [4 x i8] } { i32 10, [4 x i8] undef }, %str_slice { i8* getelementptr inbounds ([11 x i8]* @str42424, i32 0, i32 0), i32 11 } }
@const115104 = internal unnamed_addr constant { { i32, [4 x i8] }, %str_slice } { { i32, [4 x i8] } { i32 7, [4 x i8] undef }, %str_slice { i8* getelementptr inbounds ([16 x i8]* @str42421, i32 0, i32 0), i32 16 } }
@const115100 = internal unnamed_addr constant { { i32, [4 x i8] }, %str_slice } { { i32, [4 x i8] } { i32 6, [4 x i8] undef }, %str_slice { i8* getelementptr inbounds ([18 x i8]* @str42420, i32 0, i32 0), i32 18 } }
@const115096 = internal unnamed_addr constant { { i32, [4 x i8] }, %str_slice } { { i32, [4 x i8] } { i32 1, [4 x i8] undef }, %str_slice { i8* getelementptr inbounds ([11 x i8]* @str42412, i32 0, i32 0), i32 11 } }
@const115109 = internal unnamed_addr constant { { i32, [4 x i8] }, %str_slice } { { i32, [4 x i8] } { i32 3, [4 x i8] undef }, %str_slice { i8* getelementptr inbounds ([17 x i8]* @str42417, i32 0, i32 0), i32 17 } }
@_ZN3sys2fs13FileDesc.Drop4drop15__STATIC_FMTSTR20hd053235b0f393fc3UrAE = internal unnamed_addr constant { %str_slice*, i32 } { %str_slice* getelementptr inbounds ([2 x %str_slice]* @ref101051, i32 0, i32 0), i32 2 }
@str42390 = internal constant [13 x i8] c"unknown error"
@_ZN6old_io26IoError...core..fmt..Debug3fmt15__STATIC_FMTSTR20hd053235b0f393fc3RghE = internal unnamed_addr constant { %str_slice*, i32 } { %str_slice* getelementptr inbounds ([4 x %str_slice]* @ref27330, i32 0, i32 0), i32 4 }
@_ZN6old_io5stdio12LOCAL_STDOUT20hc194c3e352bd3f44csgE = internal global { { { i32, [12 x i8] } }, void (%"1.core::cell::RefCell<core::option::Option<Box<old_io::Writer + Send>>>"*)* } { { { i32, [12 x i8] } } { { i32, [12 x i8] } { i32 0, [12 x i8] undef } }, void (%"1.core::cell::RefCell<core::option::Option<Box<old_io::Writer + Send>>>"*)* @_ZN6old_io5stdio12LOCAL_STDOUT6__init20hd736954b97c931a6rsgE }
@_ZN9panicking12LOCAL_STDERR20hc194c3e352bd3f44fnHE = internal global { { { i32, [12 x i8] } }, void (%"1.core::cell::RefCell<core::option::Option<Box<old_io::Writer + Send>>>"*)* } { { { i32, [12 x i8] } } { { i32, [12 x i8] } { i32 0, [12 x i8] undef } }, void (%"1.core::cell::RefCell<core::option::Option<Box<old_io::Writer + Send>>>"*)* @_ZN9panicking12LOCAL_STDERR6__init20h6533e6e5747a686eunHE }
@vtable30627 = internal unnamed_addr constant { void (%"old_io::buffered::LineBufferedWriter<old_io::stdio::StdWriter>"**)*, i32, i32, void (%"1.core::result::Result<(), old_io::IoError>"*, %"old_io::buffered::LineBufferedWriter<old_io::stdio::StdWriter>"*, { i8*, i32 }*)*, void (%"1.core::result::Result<(), old_io::IoError>"*, %"old_io::buffered::LineBufferedWriter<old_io::stdio::StdWriter>"*, { i8*, i32 }*)*, void (%"1.core::result::Result<(), old_io::IoError>"*, %"old_io::buffered::LineBufferedWriter<old_io::stdio::StdWriter>"*)*, void (%"1.core::result::Result<(), old_io::IoError>"*, %"old_io::buffered::LineBufferedWriter<old_io::stdio::StdWriter>"*, %"2.core::fmt::Arguments"*)*, void (%"1.core::result::Result<(), old_io::IoError>"*, %"old_io::buffered::LineBufferedWriter<old_io::stdio::StdWriter>"*, %str_slice*)*, void (%"1.core::result::Result<(), old_io::IoError>"*, %"old_io::buffered::LineBufferedWriter<old_io::stdio::StdWriter>"*, %str_slice*)*, void (%"1.core::result::Result<(), old_io::IoError>"*, %"old_io::buffered::LineBufferedWriter<old_io::stdio::StdWriter>"*, i32)*, void (%"1.core::result::Result<(), old_io::IoError>"*, %"old_io::buffered::LineBufferedWriter<old_io::stdio::StdWriter>"*, i32)*, void (%"1.core::result::Result<(), old_io::IoError>"*, %"old_io::buffered::LineBufferedWriter<old_io::stdio::StdWriter>"*, i32)*, void (%"1.core::result::Result<(), old_io::IoError>"*, %"old_io::buffered::LineBufferedWriter<old_io::stdio::StdWriter>"*, i32)*, void (%"1.core::result::Result<(), old_io::IoError>"*, %"old_io::buffered::LineBufferedWriter<old_io::stdio::StdWriter>"*, i32)*, void (%"1.core::result::Result<(), old_io::IoError>"*, %"old_io::buffered::LineBufferedWriter<old_io::stdio::StdWriter>"*, i32)*, void (%"1.core::result::Result<(), old_io::IoError>"*, %"old_io::buffered::LineBufferedWriter<old_io::stdio::StdWriter>"*, i32)*, void (%"1.core::result::Result<(), old_io::IoError>"*, %"old_io::buffered::LineBufferedWriter<old_io::stdio::StdWriter>"*, i64)*, void (%"1.core::result::Result<(), old_io::IoError>"*, %"old_io::buffered::LineBufferedWriter<old_io::stdio::StdWriter>"*, i32)*, void (%"1.core::result::Result<(), old_io::IoError>"*, %"old_io::buffered::LineBufferedWriter<old_io::stdio::StdWriter>"*, i16)*, void (%"1.core::result::Result<(), old_io::IoError>"*, %"old_io::buffered::LineBufferedWriter<old_io::stdio::StdWriter>"*, i64)*, void (%"1.core::result::Result<(), old_io::IoError>"*, %"old_io::buffered::LineBufferedWriter<old_io::stdio::StdWriter>"*, i32)*, void (%"1.core::result::Result<(), old_io::IoError>"*, %"old_io::buffered::LineBufferedWriter<old_io::stdio::StdWriter>"*, i16)*, void (%"1.core::result::Result<(), old_io::IoError>"*, %"old_io::buffered::LineBufferedWriter<old_io::stdio::StdWriter>"*, double)*, void (%"1.core::result::Result<(), old_io::IoError>"*, %"old_io::buffered::LineBufferedWriter<old_io::stdio::StdWriter>"*, float)*, void (%"1.core::result::Result<(), old_io::IoError>"*, %"old_io::buffered::LineBufferedWriter<old_io::stdio::StdWriter>"*, i64)*, void (%"1.core::result::Result<(), old_io::IoError>"*, %"old_io::buffered::LineBufferedWriter<old_io::stdio::StdWriter>"*, i32)*, void (%"1.core::result::Result<(), old_io::IoError>"*, %"old_io::buffered::LineBufferedWriter<old_io::stdio::StdWriter>"*, i16)*, void (%"1.core::result::Result<(), old_io::IoError>"*, %"old_io::buffered::LineBufferedWriter<old_io::stdio::StdWriter>"*, i64)*, void (%"1.core::result::Result<(), old_io::IoError>"*, %"old_io::buffered::LineBufferedWriter<old_io::stdio::StdWriter>"*, i32)*, void (%"1.core::result::Result<(), old_io::IoError>"*, %"old_io::buffered::LineBufferedWriter<old_io::stdio::StdWriter>"*, i16)*, void (%"1.core::result::Result<(), old_io::IoError>"*, %"old_io::buffered::LineBufferedWriter<old_io::stdio::StdWriter>"*, double)*, void (%"1.core::result::Result<(), old_io::IoError>"*, %"old_io::buffered::LineBufferedWriter<old_io::stdio::StdWriter>"*, float)*, void (%"1.core::result::Result<(), old_io::IoError>"*, %"old_io::buffered::LineBufferedWriter<old_io::stdio::StdWriter>"*, i8)*, void (%"1.core::result::Result<(), old_io::IoError>"*, %"old_io::buffered::LineBufferedWriter<old_io::stdio::StdWriter>"*, i8)* } { void (%"old_io::buffered::LineBufferedWriter<old_io::stdio::StdWriter>"**)* @"_ZN79Box$LT$old_io..buffered..LineBufferedWriter$LT$old_io..stdio..StdWriter$GT$$GT$15glue_drop.4200717h337e479b0b3db8d9E", i32 36, i32 4, void (%"1.core::result::Result<(), old_io::IoError>"*, %"old_io::buffered::LineBufferedWriter<old_io::stdio::StdWriter>"*, { i8*, i32 }*)* @"_ZN6old_io8buffered34LineBufferedWriter$LT$W$GT$.Writer9write_all21h16461626548844265179E", void (%"1.core::result::Result<(), old_io::IoError>"*, %"old_io::buffered::LineBufferedWriter<old_io::stdio::StdWriter>"*, { i8*, i32 }*)* @_ZN6old_io6Writer5write21h14949304185049844003E, void (%"1.core::result::Result<(), old_io::IoError>"*, %"old_io::buffered::LineBufferedWriter<old_io::stdio::StdWriter>"*)* @"_ZN6old_io8buffered34LineBufferedWriter$LT$W$GT$.Writer5flush21h18046914209143170344E", void (%"1.core::result::Result<(), old_io::IoError>"*, %"old_io::buffered::LineBufferedWriter<old_io::stdio::StdWriter>"*, %"2.core::fmt::Arguments"*)* @_ZN6old_io6Writer9write_fmt21h16557038273226575659E, void (%"1.core::result::Result<(), old_io::IoError>"*, %"old_io::buffered::LineBufferedWriter<old_io::stdio::StdWriter>"*, %str_slice*)* @_ZN6old_io6Writer9write_str21h16894329542622805049E, void (%"1.core::result::Result<(), old_io::IoError>"*, %"old_io::buffered::LineBufferedWriter<old_io::stdio::StdWriter>"*, %str_slice*)* @_ZN6old_io6Writer10write_line21h16314801455857883121E, void (%"1.core::result::Result<(), old_io::IoError>"*, %"old_io::buffered::LineBufferedWriter<old_io::stdio::StdWriter>"*, i32)* @_ZN6old_io6Writer10write_char20h8965135686197020089E, void (%"1.core::result::Result<(), old_io::IoError>"*, %"old_io::buffered::LineBufferedWriter<old_io::stdio::StdWriter>"*, i32)* @_ZN6old_io6Writer9write_int20h1668254061865452454E, void (%"1.core::result::Result<(), old_io::IoError>"*, %"old_io::buffered::LineBufferedWriter<old_io::stdio::StdWriter>"*, i32)* @_ZN6old_io6Writer10write_uint20h8023455881502808082E, void (%"1.core::result::Result<(), old_io::IoError>"*, %"old_io::buffered::LineBufferedWriter<old_io::stdio::StdWriter>"*, i32)* @_ZN6old_io6Writer13write_le_uint20h4818450989743542949E, void (%"1.core::result::Result<(), old_io::IoError>"*, %"old_io::buffered::LineBufferedWriter<old_io::stdio::StdWriter>"*, i32)* @_ZN6old_io6Writer12write_le_int20h7089829686765412303E, void (%"1.core::result::Result<(), old_io::IoError>"*, %"old_io::buffered::LineBufferedWriter<old_io::stdio::StdWriter>"*, i32)* @_ZN6old_io6Writer13write_be_uint21h12012351248669071145E, void (%"1.core::result::Result<(), old_io::IoError>"*, %"old_io::buffered::LineBufferedWriter<old_io::stdio::StdWriter>"*, i32)* @_ZN6old_io6Writer12write_be_int21h12105289803466282051E, void (%"1.core::result::Result<(), old_io::IoError>"*, %"old_io::buffered::LineBufferedWriter<old_io::stdio::StdWriter>"*, i64)* @_ZN6old_io6Writer12write_be_u6421h11082448143446874205E, void (%"1.core::result::Result<(), old_io::IoError>"*, %"old_io::buffered::LineBufferedWriter<old_io::stdio::StdWriter>"*, i32)* @_ZN6old_io6Writer12write_be_u3220h3871333773978952126E, void (%"1.core::result::Result<(), old_io::IoError>"*, %"old_io::buffered::LineBufferedWriter<old_io::stdio::StdWriter>"*, i16)* @_ZN6old_io6Writer12write_be_u1620h9917405126220276426E, void (%"1.core::result::Result<(), old_io::IoError>"*, %"old_io::buffered::LineBufferedWriter<old_io::stdio::StdWriter>"*, i64)* @_ZN6old_io6Writer12write_be_i6420h8368834154125317988E, void (%"1.core::result::Result<(), old_io::IoError>"*, %"old_io::buffered::LineBufferedWriter<old_io::stdio::StdWriter>"*, i32)* @_ZN6old_io6Writer12write_be_i3221h11771032026939079684E, void (%"1.core::result::Result<(), old_io::IoError>"*, %"old_io::buffered::LineBufferedWriter<old_io::stdio::StdWriter>"*, i16)* @_ZN6old_io6Writer12write_be_i1621h10482904307561057936E, void (%"1.core::result::Result<(), old_io::IoError>"*, %"old_io::buffered::LineBufferedWriter<old_io::stdio::StdWriter>"*, double)* @_ZN6old_io6Writer12write_be_f6420h5908264391528797868E, void (%"1.core::result::Result<(), old_io::IoError>"*, %"old_io::buffered::LineBufferedWriter<old_io::stdio::StdWriter>"*, float)* @_ZN6old_io6Writer12write_be_f3220h5892713023987323278E, void (%"1.core::result::Result<(), old_io::IoError>"*, %"old_io::buffered::LineBufferedWriter<old_io::stdio::StdWriter>"*, i64)* @_ZN6old_io6Writer12write_le_u6421h10825558976318126247E, void (%"1.core::result::Result<(), old_io::IoError>"*, %"old_io::buffered::LineBufferedWriter<old_io::stdio::StdWriter>"*, i32)* @_ZN6old_io6Writer12write_le_u3221h17123487441734693119E, void (%"1.core::result::Result<(), old_io::IoError>"*, %"old_io::buffered::LineBufferedWriter<old_io::stdio::StdWriter>"*, i16)* @_ZN6old_io6Writer12write_le_u1621h16960986658853223999E, void (%"1.core::result::Result<(), old_io::IoError>"*, %"old_io::buffered::LineBufferedWriter<old_io::stdio::StdWriter>"*, i64)* @_ZN6old_io6Writer12write_le_i6420h4277265141361264652E, void (%"1.core::result::Result<(), old_io::IoError>"*, %"old_io::buffered::LineBufferedWriter<old_io::stdio::StdWriter>"*, i32)* @_ZN6old_io6Writer12write_le_i3220h4070935770475291412E, void (%"1.core::result::Result<(), old_io::IoError>"*, %"old_io::buffered::LineBufferedWriter<old_io::stdio::StdWriter>"*, i16)* @_ZN6old_io6Writer12write_le_i1621h15152077244620109909E, void (%"1.core::result::Result<(), old_io::IoError>"*, %"old_io::buffered::LineBufferedWriter<old_io::stdio::StdWriter>"*, double)* @_ZN6old_io6Writer12write_le_f6421h10661454870181336944E, void (%"1.core::result::Result<(), old_io::IoError>"*, %"old_io::buffered::LineBufferedWriter<old_io::stdio::StdWriter>"*, float)* @_ZN6old_io6Writer12write_le_f3221h10710602381000054606E, void (%"1.core::result::Result<(), old_io::IoError>"*, %"old_io::buffered::LineBufferedWriter<old_io::stdio::StdWriter>"*, i8)* @_ZN6old_io6Writer8write_u821h17803705644505294540E, void (%"1.core::result::Result<(), old_io::IoError>"*, %"old_io::buffered::LineBufferedWriter<old_io::stdio::StdWriter>"*, i8)* @_ZN6old_io6Writer8write_i821h14259990168344197950E }
@_ZN6old_io5stdio16with_task_stdout15__STATIC_FMTSTR20hd053235b0f393fc3UCgE = internal unnamed_addr constant { %str_slice*, i32 } { %str_slice* getelementptr inbounds ([1 x %str_slice]* @ref24853, i32 0, i32 0), i32 1 }
@_ZN6old_io5stdio16with_task_stdout10_FILE_LINE20h78521bb307daad5dkDgE = internal constant { %str_slice, i32 } { %str_slice { i8* getelementptr inbounds ([26 x i8]* @str41997, i32 0, i32 0), i32 26 }, i32 355 }
@const30800 = internal unnamed_addr constant { i8*, i32 } { i8* getelementptr inbounds ([1 x i8]* @ref30800, i32 0, i32 0), i32 1 }
@_ZN6old_io5stdio12println_args15__STATIC_FMTSTR20hd053235b0f393fc3DFgE = internal unnamed_addr constant { %str_slice*, i32 } { %str_slice* getelementptr inbounds ([2 x %str_slice]* @ref25022, i32 0, i32 0), i32 2 }
@const85708 = internal unnamed_addr constant { i32, [12 x i8] } { i32 0, [12 x i8] undef }
@_ZN6old_io30IoErrorKind...core..fmt..Debug3fmt15__STATIC_FMTSTR20hd053235b0f393fc3JwhE = internal unnamed_addr constant { %str_slice*, i32 } { %str_slice* getelementptr inbounds ([1 x %str_slice]* @ref28314, i32 0, i32 0), i32 1 }
@_ZN6old_io30IoErrorKind...core..fmt..Debug3fmt15__STATIC_FMTSTR20hd053235b0f393fc3AohE = internal unnamed_addr constant { %str_slice*, i32 } { %str_slice* getelementptr inbounds ([1 x %str_slice]* @ref27809, i32 0, i32 0), i32 1 }
@_ZN6old_io30IoErrorKind...core..fmt..Debug3fmt15__STATIC_FMTSTR20hd053235b0f393fc30ohE = internal unnamed_addr constant { %str_slice*, i32 } { %str_slice* getelementptr inbounds ([1 x %str_slice]* @ref27835, i32 0, i32 0), i32 1 }
@_ZN2io5error28ErrorKind...core..fmt..Debug3fmt15__STATIC_FMTSTR20hd053235b0f393fc3W4jE = internal unnamed_addr constant { %str_slice*, i32 } { %str_slice* getelementptr inbounds ([1 x %str_slice]* @ref27861, i32 0, i32 0), i32 1 }
@_ZN2io5error28ErrorKind...core..fmt..Debug3fmt15__STATIC_FMTSTR20hd053235b0f393fc3m5jE = internal unnamed_addr constant { %str_slice*, i32 } { %str_slice* getelementptr inbounds ([1 x %str_slice]* @ref27887, i32 0, i32 0), i32 1 }
@_ZN6old_io30IoErrorKind...core..fmt..Debug3fmt15__STATIC_FMTSTR20hd053235b0f393fc3gqhE = internal unnamed_addr constant { %str_slice*, i32 } { %str_slice* getelementptr inbounds ([1 x %str_slice]* @ref27913, i32 0, i32 0), i32 1 }
@_ZN6old_io30IoErrorKind...core..fmt..Debug3fmt15__STATIC_FMTSTR20hd053235b0f393fc3GqhE = internal unnamed_addr constant { %str_slice*, i32 } { %str_slice* getelementptr inbounds ([1 x %str_slice]* @ref27939, i32 0, i32 0), i32 1 }
@_ZN2io5error28ErrorKind...core..fmt..Debug3fmt15__STATIC_FMTSTR20hd053235b0f393fc3M5jE = internal unnamed_addr constant { %str_slice*, i32 } { %str_slice* getelementptr inbounds ([1 x %str_slice]* @ref27965, i32 0, i32 0), i32 1 }
@_ZN2io5error28ErrorKind...core..fmt..Debug3fmt15__STATIC_FMTSTR20hd053235b0f393fc3c6jE = internal unnamed_addr constant { %str_slice*, i32 } { %str_slice* getelementptr inbounds ([1 x %str_slice]* @ref27991, i32 0, i32 0), i32 1 }
@_ZN2io5error28ErrorKind...core..fmt..Debug3fmt15__STATIC_FMTSTR20hd053235b0f393fc3C6jE = internal unnamed_addr constant { %str_slice*, i32 } { %str_slice* getelementptr inbounds ([1 x %str_slice]* @ref28017, i32 0, i32 0), i32 1 }
@_ZN2io5error28ErrorKind...core..fmt..Debug3fmt15__STATIC_FMTSTR20hd053235b0f393fc326jE = internal unnamed_addr constant { %str_slice*, i32 } { %str_slice* getelementptr inbounds ([1 x %str_slice]* @ref28043, i32 0, i32 0), i32 1 }
@_ZN2io5error28ErrorKind...core..fmt..Debug3fmt15__STATIC_FMTSTR20hd053235b0f393fc3s7jE = internal unnamed_addr constant { %str_slice*, i32 } { %str_slice* getelementptr inbounds ([1 x %str_slice]* @ref28069, i32 0, i32 0), i32 1 }
@_ZN2io5error28ErrorKind...core..fmt..Debug3fmt15__STATIC_FMTSTR20hd053235b0f393fc3S7jE = internal unnamed_addr constant { %str_slice*, i32 } { %str_slice* getelementptr inbounds ([1 x %str_slice]* @ref28095, i32 0, i32 0), i32 1 }
@_ZN2io5error28ErrorKind...core..fmt..Debug3fmt15__STATIC_FMTSTR20hd053235b0f393fc3i8jE = internal unnamed_addr constant { %str_slice*, i32 } { %str_slice* getelementptr inbounds ([1 x %str_slice]* @ref28121, i32 0, i32 0), i32 1 }
@_ZN2io5error28ErrorKind...core..fmt..Debug3fmt15__STATIC_FMTSTR20hd053235b0f393fc3I8jE = internal unnamed_addr constant { %str_slice*, i32 } { %str_slice* getelementptr inbounds ([1 x %str_slice]* @ref28147, i32 0, i32 0), i32 1 }
@_ZN2io5error28ErrorKind...core..fmt..Debug3fmt15__STATIC_FMTSTR20hd053235b0f393fc388jE = internal unnamed_addr constant { %str_slice*, i32 } { %str_slice* getelementptr inbounds ([1 x %str_slice]* @ref28173, i32 0, i32 0), i32 1 }
@_ZN6old_io30IoErrorKind...core..fmt..Debug3fmt15__STATIC_FMTSTR20hd053235b0f393fc3SuhE = internal unnamed_addr constant { %str_slice*, i32 } { %str_slice* getelementptr inbounds ([1 x %str_slice]* @ref28199, i32 0, i32 0), i32 1 }
@_ZN2io5error28ErrorKind...core..fmt..Debug3fmt15__STATIC_FMTSTR20hd053235b0f393fc3y9jE = internal unnamed_addr constant { %str_slice*, i32 } { %str_slice* getelementptr inbounds ([1 x %str_slice]* @ref28225, i32 0, i32 0), i32 1 }
@_ZN2io5error28ErrorKind...core..fmt..Debug3fmt15__STATIC_FMTSTR20hd053235b0f393fc3Y9jE = internal unnamed_addr constant { %str_slice*, i32 } { %str_slice* getelementptr inbounds ([1 x %str_slice]* @ref28251, i32 0, i32 0), i32 1 }
@_ZN6old_io30IoErrorKind...core..fmt..Debug3fmt15__STATIC_FMTSTR20hd053235b0f393fc39vhE = internal unnamed_addr constant { %str_slice*, i32 } { %str_slice* getelementptr inbounds ([2 x %str_slice]* @ref28278, i32 0, i32 0), i32 2 }
@_ZN3env11EXIT_STATUS20hcb25fc92458a01d8KpoE = internal global { { i32 } } zeroinitializer
@_ZN2rt4args3imp4LOCK20ha30c6c0da1e2ff1cw1GE = internal unnamed_addr global { { %"2.core::marker::PhantomData<(&'static str, mithril::mithril::core::AttributeValue)>" }, { { i1 } } } zeroinitializer
@_ZN2rt4args3imp15GLOBAL_ARGS_PTR20h9042dc4b93922114t1GE = internal unnamed_addr global i32 0
@_ZN2rt4util15report_overflow15__STATIC_FMTSTR20hd053235b0f393fc3f0GE = internal unnamed_addr constant { %str_slice*, i32 } { %str_slice* getelementptr inbounds ([1 x %str_slice]* @ref126244, i32 0, i32 0), i32 1 }
@vtable112200268 = internal unnamed_addr constant { void (i8*)*, i32, i32, i8 (%"old_io::Writer::write_fmt::Adaptor<rt::util::Stdio>"*, %str_slice*)*, i8 (%"old_io::Writer::write_fmt::Adaptor<rt::util::Stdio>"*, %"2.core::fmt::Arguments"*)* } { void (i8*)* @_ZN2i815glue_drop.4010117h5300e9124f9f4bbeE, i32 32, i32 4, i8 (%"old_io::Writer::write_fmt::Adaptor<rt::util::Stdio>"*, %str_slice*)* @"_ZN6old_io6Writer9write_fmt41Adaptor$LT$$u27$a$C$$u20$T$GT$.fmt..Write9write_str20h1271948101741356319E", i8 (%"old_io::Writer::write_fmt::Adaptor<rt::util::Stdio>"*, %"2.core::fmt::Arguments"*)* @_ZN3fmt5Write9write_fmt21h14361299111270707894E }
@vtable112200269 = internal unnamed_addr constant { void (i8*)*, i32, i32, i8 (%"1.core::fmt::Write::write_fmt::Adapter<rt::util::abort::BufWriter>"*, %str_slice*)*, i8 (%"1.core::fmt::Write::write_fmt::Adapter<rt::util::abort::BufWriter>"*, %"2.core::fmt::Arguments"*)* } { void (i8*)* @_ZN2i815glue_drop.4010117h5300e9124f9f4bbeE, i32 4, i32 4, i8 (%"1.core::fmt::Write::write_fmt::Adapter<rt::util::abort::BufWriter>"*, %str_slice*)* @"_ZN3fmt5Write9write_fmt36Adapter$LT$$u27$a$C$$u20$T$GT$.Write9write_str20h5579880014752849433E", i8 (%"1.core::fmt::Write::write_fmt::Adapter<rt::util::abort::BufWriter>"*, %"2.core::fmt::Arguments"*)* @"_ZN3fmt5Write9write_fmt36Adapter$LT$$u27$a$C$$u20$T$GT$.Write9write_fmt21h12246458731101237028E" }
@const126173 = internal unnamed_addr constant %str_slice { i8* getelementptr inbounds ([7 x i8]* @str44987, i32 0, i32 0), i32 7 }
@_ZN2rt4util5abort15__STATIC_FMTSTR20hd053235b0f393fc3zZGE = internal unnamed_addr constant { %str_slice*, i32 } { %str_slice* getelementptr inbounds ([2 x %str_slice]* @ref126202, i32 0, i32 0), i32 2 }
@_ZN2rt12unwind_dummy14_Unwind_Resume10_FILE_LINE20h78521bb307daad5difHE = internal constant { %str_slice, i32 } { %str_slice { i8* getelementptr inbounds ([29 x i8]* @str45070, i32 0, i32 0), i32 29 }, i32 152 }
@const127532 = internal unnamed_addr constant %str_slice { i8* getelementptr inbounds ([6 x i8]* @str45087, i32 0, i32 0), i32 6 }
@_ZN10sys_common11thread_info11THREAD_INFO20h31591e16972932f6FUFE = internal global { { { i32, [20 x i8] } }, void (%"1.core::cell::RefCell<core::option::Option<sys_common::thread_info::ThreadInfo>>"*)* } { { { i32, [20 x i8] } } { { i32, [20 x i8] } { i32 0, [20 x i8] undef } }, void (%"1.core::cell::RefCell<core::option::Option<sys_common::thread_info::ThreadInfo>>"*)* @_ZN10sys_common11thread_info11THREAD_INFO6__init20h7d779d7b798b5329RUFE }
@const122212 = internal unnamed_addr constant %str_slice { i8* getelementptr inbounds ([38 x i8]* @str44926, i32 0, i32 0), i32 38 }
@_ZN10sys_common11thread_info3set10_FILE_LINE20h78521bb307daad5doXFE = internal constant { %str_slice, i32 } { %str_slice { i8* getelementptr inbounds ([36 x i8]* @str44893, i32 0, i32 0), i32 36 }, i32 58 }
@const127567 = internal unnamed_addr constant %str_slice { i8* getelementptr inbounds ([60 x i8]* @str45099, i32 0, i32 0), i32 60 }
@_ZN2rt10lang_start14ignore_sigpipe10_FILE_LINE20h78521bb307daad5dLlHE = internal constant { %str_slice, i32 } { %str_slice { i8* getelementptr inbounds ([20 x i8]* @str45100, i32 0, i32 0), i32 20 }, i32 142 }
@ref6438 = internal unnamed_addr constant [1 x %str_slice] [%str_slice { i8* getelementptr inbounds ([0 x i8]* @ref71287, i32 0, i32 0), i32 0 }]
@str40371 = internal constant [2 x i8] c" }"
@ref71287 = internal constant [0 x i8] zeroinitializer
@str40303 = internal constant [2 x i8] c", "
@str40304 = internal constant [1 x i8] c")"
@str45100 = internal constant [20 x i8] c"src/libstd/rt/mod.rs"
@str45099 = internal constant [60 x i8] c"assertion failed: signal(libc::SIGPIPE, libc::SIG_IGN) != -1"
@str44893 = internal constant [36 x i8] c"src/libstd/sys/common/thread_info.rs"
@str44926 = internal constant [38 x i8] c"assertion failed: c.borrow().is_none()"
@str45087 = internal constant [6 x i8] c"<main>"
@str45070 = internal constant [29 x i8] c"src/libstd/rt/unwind_dummy.rs"
@ref126450 = internal unnamed_addr constant %str_slice { i8* getelementptr inbounds ([16 x i8]* @str44999, i32 0, i32 0), i32 16 }
@str44999 = internal constant [16 x i8] c"(*ptr).is_none()"
@ref126202 = internal unnamed_addr constant [2 x %str_slice] [%str_slice { i8* getelementptr inbounds ([21 x i8]* @str44988, i32 0, i32 0), i32 21 }, %str_slice { i8* getelementptr inbounds ([1 x i8]* @ref30800, i32 0, i32 0), i32 1 }]
@str44988 = internal constant [21 x i8] c"fatal runtime error: "
@ref30800 = internal constant [1 x i8] c"\0A"
@str44987 = internal constant [7 x i8] c"aborted"
@vtable112200267 = internal unnamed_addr constant { void (i8*)*, i32, i32, i8 (%"1.core::fmt::Write::write_fmt::Adapter<old_io::Writer::write_fmt::Adaptor<rt::util::Stdio>>"*, %str_slice*)*, i8 (%"1.core::fmt::Write::write_fmt::Adapter<old_io::Writer::write_fmt::Adaptor<rt::util::Stdio>>"*, %"2.core::fmt::Arguments"*)* } { void (i8*)* @_ZN2i815glue_drop.4010117h5300e9124f9f4bbeE, i32 4, i32 4, i8 (%"1.core::fmt::Write::write_fmt::Adapter<old_io::Writer::write_fmt::Adaptor<rt::util::Stdio>>"*, %str_slice*)* @"_ZN3fmt5Write9write_fmt36Adapter$LT$$u27$a$C$$u20$T$GT$.Write9write_str20h2650832596224998677E", i8 (%"1.core::fmt::Write::write_fmt::Adapter<old_io::Writer::write_fmt::Adaptor<rt::util::Stdio>>"*, %"2.core::fmt::Arguments"*)* @"_ZN3fmt5Write9write_fmt36Adapter$LT$$u27$a$C$$u20$T$GT$.Write9write_fmt20h1930433117842155439E" }
@ref126244 = internal unnamed_addr constant [1 x %str_slice] [%str_slice { i8* getelementptr inbounds ([33 x i8]* @str44989, i32 0, i32 0), i32 33 }]
@str44989 = internal constant [33 x i8] c"\0Athread has overflowed its stack\0A"
@const132157 = internal unnamed_addr constant %str_slice { i8* getelementptr inbounds ([30 x i8]* @str39828, i32 0, i32 0), i32 30 }
@str39828 = internal constant [30 x i8] c"Vec::reserve: `usize` overflow"
@str43860 = internal constant [25 x i8] c"src/libstd/sys/unix/os.rs"
@str44717 = internal constant [16 x i8] c"invalid argument"
@str41381 = internal constant [1 x i8] c":"
@str42340 = internal constant [8 x i8] c", desc: "
@str42341 = internal constant [10 x i8] c", detail: "
@ref28278 = internal unnamed_addr constant [2 x %str_slice] [%str_slice { i8* getelementptr inbounds ([11 x i8]* @str42410, i32 0, i32 0), i32 11 }, %str_slice { i8* getelementptr inbounds ([1 x i8]* @str40304, i32 0, i32 0), i32 1 }]
@str42410 = internal constant [11 x i8] c"ShortWrite("
@ref28251 = internal unnamed_addr constant [1 x %str_slice] [%str_slice { i8* getelementptr inbounds ([8 x i8]* @str42409, i32 0, i32 0), i32 8 }]
@str42409 = internal constant [8 x i8] c"TimedOut"
@ref28225 = internal unnamed_addr constant [1 x %str_slice] [%str_slice { i8* getelementptr inbounds ([12 x i8]* @str42408, i32 0, i32 0), i32 12 }]
@str42408 = internal constant [12 x i8] c"InvalidInput"
@ref28199 = internal unnamed_addr constant [1 x %str_slice] [%str_slice { i8* getelementptr inbounds ([13 x i8]* @str42407, i32 0, i32 0), i32 13 }]
@str42407 = internal constant [13 x i8] c"IoUnavailable"
@ref28173 = internal unnamed_addr constant [1 x %str_slice] [%str_slice { i8* getelementptr inbounds ([19 x i8]* @str42406, i32 0, i32 0), i32 19 }]
@str42406 = internal constant [19 x i8] c"ResourceUnavailable"
@ref28147 = internal unnamed_addr constant [1 x %str_slice] [%str_slice { i8* getelementptr inbounds ([30 x i8]* @str42405, i32 0, i32 0), i32 30 }]
@str42405 = internal constant [30 x i8] c"MismatchedFileTypeForOperation"
@ref28121 = internal unnamed_addr constant [1 x %str_slice] [%str_slice { i8* getelementptr inbounds ([15 x i8]* @str42404, i32 0, i32 0), i32 15 }]
@str42404 = internal constant [15 x i8] c"PathDoesntExist"
@ref28095 = internal unnamed_addr constant [1 x %str_slice] [%str_slice { i8* getelementptr inbounds ([17 x i8]* @str42403, i32 0, i32 0), i32 17 }]
@str42403 = internal constant [17 x i8] c"PathAlreadyExists"
@ref28069 = internal unnamed_addr constant [1 x %str_slice] [%str_slice { i8* getelementptr inbounds ([10 x i8]* @str42402, i32 0, i32 0), i32 10 }]
@str42402 = internal constant [10 x i8] c"BrokenPipe"
@ref28043 = internal unnamed_addr constant [1 x %str_slice] [%str_slice { i8* getelementptr inbounds ([12 x i8]* @str42401, i32 0, i32 0), i32 12 }]
@str42401 = internal constant [12 x i8] c"NotConnected"
@ref28017 = internal unnamed_addr constant [1 x %str_slice] [%str_slice { i8* getelementptr inbounds ([17 x i8]* @str42400, i32 0, i32 0), i32 17 }]
@str42400 = internal constant [17 x i8] c"ConnectionAborted"
@ref27991 = internal unnamed_addr constant [1 x %str_slice] [%str_slice { i8* getelementptr inbounds ([15 x i8]* @str42399, i32 0, i32 0), i32 15 }]
@str42399 = internal constant [15 x i8] c"ConnectionReset"
@ref27965 = internal unnamed_addr constant [1 x %str_slice] [%str_slice { i8* getelementptr inbounds ([17 x i8]* @str42398, i32 0, i32 0), i32 17 }]
@str42398 = internal constant [17 x i8] c"ConnectionRefused"
@ref27939 = internal unnamed_addr constant [1 x %str_slice] [%str_slice { i8* getelementptr inbounds ([6 x i8]* @str42397, i32 0, i32 0), i32 6 }]
@str42397 = internal constant [6 x i8] c"Closed"
@ref27913 = internal unnamed_addr constant [1 x %str_slice] [%str_slice { i8* getelementptr inbounds ([16 x i8]* @str42396, i32 0, i32 0), i32 16 }]
@str42396 = internal constant [16 x i8] c"ConnectionFailed"
@ref27887 = internal unnamed_addr constant [1 x %str_slice] [%str_slice { i8* getelementptr inbounds ([16 x i8]* @str42395, i32 0, i32 0), i32 16 }]
@str42395 = internal constant [16 x i8] c"PermissionDenied"
@ref27861 = internal unnamed_addr constant [1 x %str_slice] [%str_slice { i8* getelementptr inbounds ([12 x i8]* @str42394, i32 0, i32 0), i32 12 }]
@str42394 = internal constant [12 x i8] c"FileNotFound"
@ref27835 = internal unnamed_addr constant [1 x %str_slice] [%str_slice { i8* getelementptr inbounds ([9 x i8]* @str42393, i32 0, i32 0), i32 9 }]
@str42393 = internal constant [9 x i8] c"EndOfFile"
@ref27809 = internal unnamed_addr constant [1 x %str_slice] [%str_slice { i8* getelementptr inbounds ([12 x i8]* @str42392, i32 0, i32 0), i32 12 }]
@str42392 = internal constant [12 x i8] c"OtherIoError"
@ref28314 = internal unnamed_addr constant [1 x %str_slice] [%str_slice { i8* getelementptr inbounds ([10 x i8]* @str42411, i32 0, i32 0), i32 10 }]
@str42411 = internal constant [10 x i8] c"NoProgress"
@ref25022 = internal unnamed_addr constant [2 x %str_slice] [%str_slice { i8* getelementptr inbounds ([0 x i8]* @ref71287, i32 0, i32 0), i32 0 }, %str_slice { i8* getelementptr inbounds ([1 x i8]* @ref30800, i32 0, i32 0), i32 1 }]
@str41997 = internal constant [26 x i8] c"src/libstd/old_io/stdio.rs"
@ref24853 = internal unnamed_addr constant [1 x %str_slice] [%str_slice { i8* getelementptr inbounds ([27 x i8]* @str41996, i32 0, i32 0), i32 27 }]
@str41996 = internal constant [27 x i8] c"failed printing to stdout: "
@vtable11220072 = internal unnamed_addr constant { void (i8*)*, i32, i32, i8 (%"old_io::Writer::write_fmt::Adaptor<old_io::buffered::LineBufferedWriter<old_io::stdio::StdWriter>>"*, %str_slice*)*, i8 (%"old_io::Writer::write_fmt::Adaptor<old_io::buffered::LineBufferedWriter<old_io::stdio::StdWriter>>"*, %"2.core::fmt::Arguments"*)* } { void (i8*)* @_ZN2i815glue_drop.4010117h5300e9124f9f4bbeE, i32 32, i32 4, i8 (%"old_io::Writer::write_fmt::Adaptor<old_io::buffered::LineBufferedWriter<old_io::stdio::StdWriter>>"*, %str_slice*)* @"_ZN6old_io6Writer9write_fmt41Adaptor$LT$$u27$a$C$$u20$T$GT$.fmt..Write9write_str20h2637281500628015894E", i8 (%"old_io::Writer::write_fmt::Adaptor<old_io::buffered::LineBufferedWriter<old_io::stdio::StdWriter>>"*, %"2.core::fmt::Arguments"*)* @_ZN3fmt5Write9write_fmt20h8568803839015103346E }
@vtable11220071 = internal unnamed_addr constant { void (i8*)*, i32, i32, i8 (%"1.core::fmt::Write::write_fmt::Adapter<old_io::Writer::write_fmt::Adaptor<old_io::buffered::LineBufferedWriter<old_io::stdio::StdWriter>>>"*, %str_slice*)*, i8 (%"1.core::fmt::Write::write_fmt::Adapter<old_io::Writer::write_fmt::Adaptor<old_io::buffered::LineBufferedWriter<old_io::stdio::StdWriter>>>"*, %"2.core::fmt::Arguments"*)* } { void (i8*)* @_ZN2i815glue_drop.4010117h5300e9124f9f4bbeE, i32 4, i32 4, i8 (%"1.core::fmt::Write::write_fmt::Adapter<old_io::Writer::write_fmt::Adaptor<old_io::buffered::LineBufferedWriter<old_io::stdio::StdWriter>>>"*, %str_slice*)* @"_ZN3fmt5Write9write_fmt36Adapter$LT$$u27$a$C$$u20$T$GT$.Write9write_str20h2139820600086508742E", i8 (%"1.core::fmt::Write::write_fmt::Adapter<old_io::Writer::write_fmt::Adaptor<old_io::buffered::LineBufferedWriter<old_io::stdio::StdWriter>>>"*, %"2.core::fmt::Arguments"*)* @"_ZN3fmt5Write9write_fmt36Adapter$LT$$u27$a$C$$u20$T$GT$.Write9write_fmt21h13252879211403170193E" }
@str44710 = internal constant [28 x i8] c"file descriptor is not a TTY"
@ref27330 = internal unnamed_addr constant [4 x %str_slice] [%str_slice { i8* getelementptr inbounds ([16 x i8]* @str42339, i32 0, i32 0), i32 16 }, %str_slice { i8* getelementptr inbounds ([8 x i8]* @str42340, i32 0, i32 0), i32 8 }, %str_slice { i8* getelementptr inbounds ([10 x i8]* @str42341, i32 0, i32 0), i32 10 }, %str_slice { i8* getelementptr inbounds ([2 x i8]* @str40371, i32 0, i32 0), i32 2 }]
@str42339 = internal constant [16 x i8] c"IoError { kind: "
@str42412 = internal constant [11 x i8] c"end of file"
@ref101051 = internal unnamed_addr constant [2 x %str_slice] [%str_slice { i8* getelementptr inbounds ([6 x i8]* @str43783, i32 0, i32 0), i32 6 }, %str_slice { i8* getelementptr inbounds ([30 x i8]* @str43784, i32 0, i32 0), i32 30 }]
@str43783 = internal constant [6 x i8] c"error "
@str43784 = internal constant [30 x i8] c" when closing file descriptor "
@const105181 = internal unnamed_addr constant %str_slice { i8* getelementptr inbounds ([18 x i8]* @str43859, i32 0, i32 0), i32 18 }
@_ZN3sys2os12error_string10_FILE_LINE20h78521bb307daad5dHwBE = internal constant { %str_slice, i32 } { %str_slice { i8* getelementptr inbounds ([25 x i8]* @str43860, i32 0, i32 0), i32 25 }, i32 106 }
@str43859 = internal constant [18 x i8] c"strerror_r failure"
@str42417 = internal constant [17 x i8] c"permission denied"
@str42420 = internal constant [18 x i8] c"connection refused"
@str42421 = internal constant [16 x i8] c"connection reset"
@str42424 = internal constant [11 x i8] c"broken pipe"
@str42423 = internal constant [13 x i8] c"not connected"
@str42422 = internal constant [18 x i8] c"connection aborted"
@str44712 = internal constant [21 x i8] c"address not available"
@str44713 = internal constant [14 x i8] c"address in use"
@str44714 = internal constant [25 x i8] c"no such file or directory"
@str44715 = internal constant [32 x i8] c"illegal operation on a directory"
@str44716 = internal constant [24 x i8] c"function not implemented"
@str42429 = internal constant [19 x i8] c"operation timed out"
@str44718 = internal constant [17 x i8] c"operation aborted"
@str44719 = internal constant [19 x i8] c"path already exists"
@str44720 = internal constant [32 x i8] c"resource temporarily unavailable"
@ref7465 = internal unnamed_addr constant [3 x %str_slice] [%str_slice { i8* getelementptr inbounds ([9 x i8]* @str40302, i32 0, i32 0), i32 9 }, %str_slice { i8* getelementptr inbounds ([2 x i8]* @str40303, i32 0, i32 0), i32 2 }, %str_slice { i8* getelementptr inbounds ([1 x i8]* @str40304, i32 0, i32 0), i32 1 }]
@str40302 = internal constant [9 x i8] c"NulError("
@str40162 = internal constant [4 x i8] c"main"
@str39763 = internal constant [17 x i8] c"capacity overflow"
@vtable68335109 = internal unnamed_addr constant { void (%str_slice**)*, i32, i32, i64 (%str_slice*)* } { void (%str_slice**)* @"_ZN34Box$LT$$RF$$u27$static$u20$str$GT$15glue_drop.3965217hd434b930a012f833E", i32 8, i32 4, i64 (%str_slice*)* @_ZN3any5T.Any11get_type_id21h10072401476545328302E }
@str45072 = internal constant [19 x i8] c"not yet implemented"
@const126750 = internal unnamed_addr constant %str_slice { i8* getelementptr inbounds ([8 x i8]* @str45060, i32 0, i32 0), i32 8 }
@_ZN2rt12unwind_dummy10rust_panic15__STATIC_FMTSTR20hd053235b0f393fc3F8GE = internal unnamed_addr constant { %str_slice*, i32 } { %str_slice* getelementptr inbounds ([1 x %str_slice]* @ref126766, i32 0, i32 0), i32 1 }
@ref126766 = internal unnamed_addr constant [1 x %str_slice] [%str_slice { i8* getelementptr inbounds ([7 x i8]* @str45061, i32 0, i32 0), i32 7 }]
@str45061 = internal constant [7 x i8] c"panic: "
@str45060 = internal constant [8 x i8] c"Box<Any>"
@ref127023 = internal unnamed_addr constant [1 x %str_slice] [%str_slice { i8* getelementptr inbounds ([43 x i8]* @str45067, i32 0, i32 0), i32 43 }]
@str45067 = internal constant [43 x i8] c"thread panicked while panicking. aborting.\0A"
@str45071 = internal constant [9 x i8] c"prev == 0"
@ref126443 = internal unnamed_addr constant [1 x %str_slice] [%str_slice { i8* getelementptr inbounds ([19 x i8]* @str44998, i32 0, i32 0), i32 19 }]
@str44998 = internal constant [19 x i8] c" assertion failed: "
@_ZN9panicking8on_panic15__STATIC_FMTSTR20hd053235b0f393fc3HpHE = internal unnamed_addr constant { %str_slice*, i32 } { %str_slice* getelementptr inbounds ([5 x %str_slice]* @ref127822, i32 0, i32 0), i32 5 }
@_ZN9panicking8on_panic15__STATIC_FMTSTR20hd053235b0f393fc3krHE = internal unnamed_addr constant { %str_slice*, i32 } { %str_slice* getelementptr inbounds ([5 x %str_slice]* @ref127923, i32 0, i32 0), i32 5 }
@ref127923 = internal unnamed_addr constant [5 x %str_slice] [%str_slice { i8* getelementptr inbounds ([8 x i8]* @str45104, i32 0, i32 0), i32 8 }, %str_slice { i8* getelementptr inbounds ([15 x i8]* @str45105, i32 0, i32 0), i32 15 }, %str_slice { i8* getelementptr inbounds ([3 x i8]* @str45106, i32 0, i32 0), i32 3 }, %str_slice { i8* getelementptr inbounds ([1 x i8]* @str41381, i32 0, i32 0), i32 1 }, %str_slice { i8* getelementptr inbounds ([1 x i8]* @ref30800, i32 0, i32 0), i32 1 }]
@str45104 = internal constant [8 x i8] c"thread '"
@str45105 = internal constant [15 x i8] c"' panicked at '"
@str45106 = internal constant [3 x i8] c"', "
@ref127822 = internal unnamed_addr constant [5 x %str_slice] [%str_slice { i8* getelementptr inbounds ([8 x i8]* @str45104, i32 0, i32 0), i32 8 }, %str_slice { i8* getelementptr inbounds ([15 x i8]* @str45105, i32 0, i32 0), i32 15 }, %str_slice { i8* getelementptr inbounds ([3 x i8]* @str45106, i32 0, i32 0), i32 3 }, %str_slice { i8* getelementptr inbounds ([1 x i8]* @str41381, i32 0, i32 0), i32 1 }, %str_slice { i8* getelementptr inbounds ([2 x i8]* @str45107, i32 0, i32 0), i32 2 }]
@str45107 = internal constant [2 x i8] c"\0A\0A"
@"_ZN3vec12Vec$LT$T$GT$4push14_MSG_FILE_LINE20h3a2df9da68cfa76004hE" = internal constant { %str_slice, %str_slice, i32 } { %str_slice { i8* getelementptr inbounds ([17 x i8]* @str17917, i32 0, i32 0), i32 17 }, %str_slice { i8* getelementptr inbounds ([25 x i8]* @str17902, i32 0, i32 0), i32 25 }, i32 657 }
@_ZN6string10T.ToString9to_string15__STATIC_FMTSTR20h45fd819a406020c8ONhE = internal unnamed_addr constant { %str_slice*, i32 } { %str_slice* getelementptr inbounds ([1 x %str_slice]* @ref3320, i32 0, i32 0), i32 1 }
@str17917 = internal constant [17 x i8] c"capacity overflow"
@str17902 = internal constant [25 x i8] c"src/libcollections/vec.rs"
@ref3320 = internal unnamed_addr constant [1 x %str_slice] [%str_slice { i8* getelementptr inbounds ([0 x i8]* @str18087, i32 0, i32 0), i32 0 }]
@str18087 = internal constant [0 x i8] zeroinitializer
@"_ZN4cell16RefCell$LT$T$GT$6borrow14_MSG_FILE_LINE20h4bd88ad8aef500833FsE" = internal constant { %str_slice, %str_slice, i32 } { %str_slice { i8* getelementptr inbounds ([35 x i8]* @str39739, i32 0, i32 0), i32 35 }, %str_slice { i8* getelementptr inbounds ([19 x i8]* @str39738, i32 0, i32 0), i32 19 }, i32 396 }
@"_ZN4cell16RefCell$LT$T$GT$10borrow_mut14_MSG_FILE_LINE20h4bd88ad8aef50083nHsE" = internal constant { %str_slice, %str_slice, i32 } { %str_slice { i8* getelementptr inbounds ([27 x i8]* @str39740, i32 0, i32 0), i32 27 }, %str_slice { i8* getelementptr inbounds ([19 x i8]* @str39738, i32 0, i32 0), i32 19 }, i32 457 }
@"_ZN6option34Option$LT$T$GT$...core..fmt..Debug3fmt15__STATIC_FMTSTR20hca469abe1a9e6e54xvvE" = internal unnamed_addr constant { %str_slice*, i32 } { %str_slice* getelementptr inbounds ([1 x %str_slice]* @ref82056, i32 0, i32 0), i32 1 }
@"_ZN6option34Option$LT$T$GT$...core..fmt..Debug3fmt15__STATIC_FMTSTR20hca469abe1a9e6e54YvvE" = internal unnamed_addr constant { %str_slice*, i32 } { %str_slice* getelementptr inbounds ([2 x %str_slice]* @ref82083, i32 0, i32 0), i32 2 }
@"_ZN6option15Option$LT$T$GT$6expect10_FILE_LINE20hfb04aea8b8af02e9bKvE" = internal constant { %str_slice, i32 } { %str_slice { i8* getelementptr inbounds ([21 x i8]* @str39760, i32 0, i32 0), i32 21 }, i32 330 }
@"_ZN6option15Option$LT$T$GT$6unwrap14_MSG_FILE_LINE20h4bd88ad8aef500836KvE" = internal constant { %str_slice, %str_slice, i32 } { %str_slice { i8* getelementptr inbounds ([43 x i8]* @str39761, i32 0, i32 0), i32 43 }, %str_slice { i8* getelementptr inbounds ([21 x i8]* @str39760, i32 0, i32 0), i32 21 }, i32 362 }
@"_ZN6result24Result$LT$T$C$$u20$E$GT$6unwrap10_FILE_LINE20hfb04aea8b8af02e9QowE" = internal constant { %str_slice, i32 } { %str_slice { i8* getelementptr inbounds ([21 x i8]* @str39764, i32 0, i32 0), i32 21 }, i32 744 }
@"_ZN6result24Result$LT$T$C$$u20$E$GT$6unwrap15__STATIC_FMTSTR20hca469abe1a9e6e546owE" = internal unnamed_addr constant { %str_slice*, i32 } { %str_slice* getelementptr inbounds ([1 x %str_slice]* @ref85501, i32 0, i32 0), i32 1 }
@"_ZN5slice54_$u5b$T$u5d$.ops..Index$LT$ops..Range$LT$usize$GT$$GT$5index14_MSG_FILE_LINE20h4bd88ad8aef50083ntxE" = internal constant { %str_slice, %str_slice, i32 } { %str_slice { i8* getelementptr inbounds ([42 x i8]* @str39781, i32 0, i32 0), i32 42 }, %str_slice { i8* getelementptr inbounds ([20 x i8]* @str39778, i32 0, i32 0), i32 20 }, i32 520 }
@"_ZN5slice54_$u5b$T$u5d$.ops..Index$LT$ops..Range$LT$usize$GT$$GT$5index14_MSG_FILE_LINE20h4bd88ad8aef50083QtxE" = internal constant { %str_slice, %str_slice, i32 } { %str_slice { i8* getelementptr inbounds ([41 x i8]* @str39782, i32 0, i32 0), i32 41 }, %str_slice { i8* getelementptr inbounds ([20 x i8]* @str39778, i32 0, i32 0), i32 20 }, i32 521 }
@"_ZN5slice57_$u5b$T$u5d$.ops..IndexMut$LT$ops..Range$LT$usize$GT$$GT$9index_mut14_MSG_FILE_LINE20h4bd88ad8aef50083nwxE" = internal constant { %str_slice, %str_slice, i32 } { %str_slice { i8* getelementptr inbounds ([42 x i8]* @str39781, i32 0, i32 0), i32 42 }, %str_slice { i8* getelementptr inbounds ([20 x i8]* @str39778, i32 0, i32 0), i32 20 }, i32 559 }
@_ZN5slice5bytes11copy_memory14_MSG_FILE_LINE20h4bd88ad8aef500836qyE = internal constant { %str_slice, %str_slice, i32 } { %str_slice { i8* getelementptr inbounds ([38 x i8]* @str39783, i32 0, i32 0), i32 38 }, %str_slice { i8* getelementptr inbounds ([20 x i8]* @str39778, i32 0, i32 0), i32 20 }, i32 1542 }
@"_ZN3fmt18_$u5b$T$u5d$.Debug3fmt15__STATIC_FMTSTR20hca469abe1a9e6e54ZOGE" = internal unnamed_addr constant { %str_slice*, i32 } { %str_slice* getelementptr inbounds ([1 x %str_slice]* @ref125546, i32 0, i32 0), i32 1 }
@"_ZN3fmt18_$u5b$T$u5d$.Debug3fmt15__STATIC_FMTSTR20hca469abe1a9e6e54gQGE" = internal unnamed_addr constant { %str_slice*, i32 } { %str_slice* getelementptr inbounds ([1 x %str_slice]* @ref115449, i32 0, i32 0), i32 1 }
@"_ZN3fmt18_$u5b$T$u5d$.Debug3fmt15__STATIC_FMTSTR20hca469abe1a9e6e54WQGE" = internal unnamed_addr constant { %str_slice*, i32 } { %str_slice* getelementptr inbounds ([1 x %str_slice]* @ref72983, i32 0, i32 0), i32 1 }
@"_ZN3fmt18_$u5b$T$u5d$.Debug3fmt15__STATIC_FMTSTR20hca469abe1a9e6e543RGE" = internal unnamed_addr constant { %str_slice*, i32 } { %str_slice* getelementptr inbounds ([1 x %str_slice]* @ref125736, i32 0, i32 0), i32 1 }
@_ZN3fmt3num18Radix.GenericRadix5digit15__STATIC_FMTSTR20hca469abe1a9e6e54U9BE = internal unnamed_addr constant { %str_slice*, i32 } { %str_slice* getelementptr inbounds ([2 x %str_slice]* @ref106954, i32 0, i32 0), i32 2 }
@_ZN3fmt3num20Decimal.GenericRadix5digit10_FILE_LINE20hfb04aea8b8af02e9Z1BE = internal constant { %str_slice, i32 } { %str_slice { i8* getelementptr inbounds ([22 x i8]* @str39859, i32 0, i32 0), i32 22 }, i32 106 }
@const102169 = internal unnamed_addr constant %str_slice { i8* getelementptr inbounds ([0 x i8]* @str39701, i32 0, i32 0), i32 0 }
@_ZN3fmt9str.Debug3fmt15__STATIC_FMTSTR20hca469abe1a9e6e54cXDE = internal unnamed_addr constant { %str_slice*, i32 } { %str_slice* getelementptr inbounds ([1 x %str_slice]* @ref114404, i32 0, i32 0), i32 1 }
@panic_bounds_check_loc72291 = internal unnamed_addr constant { %str_slice, i32 } { %str_slice { i8* getelementptr inbounds ([19 x i8]* @str39744, i32 0, i32 0), i32 19 }, i32 230 }
@panic_bounds_check_loc72312 = internal unnamed_addr constant { %str_slice, i32 } { %str_slice { i8* getelementptr inbounds ([19 x i8]* @str39744, i32 0, i32 0), i32 19 }, i32 233 }
@panic_bounds_check_loc72327 = internal unnamed_addr constant { %str_slice, i32 } { %str_slice { i8* getelementptr inbounds ([19 x i8]* @str39744, i32 0, i32 0), i32 19 }, i32 234 }
@panic_bounds_check_loc72353 = internal unnamed_addr constant { %str_slice, i32 } { %str_slice { i8* getelementptr inbounds ([19 x i8]* @str39744, i32 0, i32 0), i32 19 }, i32 237 }
@panic_bounds_check_loc72368 = internal unnamed_addr constant { %str_slice, i32 } { %str_slice { i8* getelementptr inbounds ([19 x i8]* @str39744, i32 0, i32 0), i32 19 }, i32 238 }
@panic_bounds_check_loc72383 = internal unnamed_addr constant { %str_slice, i32 } { %str_slice { i8* getelementptr inbounds ([19 x i8]* @str39744, i32 0, i32 0), i32 19 }, i32 239 }
@panic_bounds_check_loc72405 = internal unnamed_addr constant { %str_slice, i32 } { %str_slice { i8* getelementptr inbounds ([19 x i8]* @str39744, i32 0, i32 0), i32 19 }, i32 242 }
@panic_bounds_check_loc72420 = internal unnamed_addr constant { %str_slice, i32 } { %str_slice { i8* getelementptr inbounds ([19 x i8]* @str39744, i32 0, i32 0), i32 19 }, i32 243 }
@panic_bounds_check_loc72435 = internal unnamed_addr constant { %str_slice, i32 } { %str_slice { i8* getelementptr inbounds ([19 x i8]* @str39744, i32 0, i32 0), i32 19 }, i32 244 }
@panic_bounds_check_loc72450 = internal unnamed_addr constant { %str_slice, i32 } { %str_slice { i8* getelementptr inbounds ([19 x i8]* @str39744, i32 0, i32 0), i32 19 }, i32 245 }
@_ZN9panicking18panic_bounds_check15__STATIC_FMTSTR20hca469abe1a9e6e5419sE = internal unnamed_addr constant { %str_slice*, i32 } { %str_slice* getelementptr inbounds ([2 x %str_slice]* @ref73034, i32 0, i32 0), i32 2 }
@_ZN3str28Utf8Error...core..fmt..Debug3fmt15__STATIC_FMTSTR20hca469abe1a9e6e54WdzE = internal unnamed_addr constant { %str_slice*, i32 } { %str_slice* getelementptr inbounds ([1 x %str_slice]* @ref96341, i32 0, i32 0), i32 1 }
@_ZN3str28Utf8Error...core..fmt..Debug3fmt15__STATIC_FMTSTR20hca469abe1a9e6e54mdzE = internal unnamed_addr constant { %str_slice*, i32 } { %str_slice* getelementptr inbounds ([2 x %str_slice]* @ref96305, i32 0, i32 0), i32 2 }
@_ZN3str15UTF8_CHAR_WIDTH20h36f0d7622ba19bdfZYzE = internal unnamed_addr constant [256 x i8] c"\01\01\01\01\01\01\01\01\01\01\01\01\01\01\01\01\01\01\01\01\01\01\01\01\01\01\01\01\01\01\01\01\01\01\01\01\01\01\01\01\01\01\01\01\01\01\01\01\01\01\01\01\01\01\01\01\01\01\01\01\01\01\01\01\01\01\01\01\01\01\01\01\01\01\01\01\01\01\01\01\01\01\01\01\01\01\01\01\01\01\01\01\01\01\01\01\01\01\01\01\01\01\01\01\01\01\01\01\01\01\01\01\01\01\01\01\01\01\01\01\01\01\01\01\01\01\01\01\00\00\00\00\00\00\00\00\00\00\00\00\00\00\00\00\00\00\00\00\00\00\00\00\00\00\00\00\00\00\00\00\00\00\00\00\00\00\00\00\00\00\00\00\00\00\00\00\00\00\00\00\00\00\00\00\00\00\00\00\00\00\00\00\00\00\02\02\02\02\02\02\02\02\02\02\02\02\02\02\02\02\02\02\02\02\02\02\02\02\02\02\02\02\02\02\03\03\03\03\03\03\03\03\03\03\03\03\03\03\03\03\04\04\04\04\04\00\00\00\00\00\00\00\00\00\00\00"
@_ZN3str10str.StrExt11slice_chars14_MSG_FILE_LINE20h4bd88ad8aef50083HtAE = internal constant { %str_slice, %str_slice, i32 } { %str_slice { i8* getelementptr inbounds ([44 x i8]* @str39842, i32 0, i32 0), i32 44 }, %str_slice { i8* getelementptr inbounds ([22 x i8]* @str39821, i32 0, i32 0), i32 22 }, i32 1493 }
@_ZN3str10str.StrExt11slice_chars14_MSG_FILE_LINE20h4bd88ad8aef500834tAE = internal constant { %str_slice, %str_slice, i32 } { %str_slice { i8* getelementptr inbounds ([42 x i8]* @str39843, i32 0, i32 0), i32 42 }, %str_slice { i8* getelementptr inbounds ([22 x i8]* @str39821, i32 0, i32 0), i32 22 }, i32 1494 }
@panic_bounds_check_loc113029 = internal unnamed_addr constant { %str_slice, i32 } { %str_slice { i8* getelementptr inbounds ([22 x i8]* @str39902, i32 0, i32 0), i32 22 }, i32 413 }
@panic_bounds_check_loc112991 = internal unnamed_addr constant { %str_slice, i32 } { %str_slice { i8* getelementptr inbounds ([22 x i8]* @str39902, i32 0, i32 0), i32 22 }, i32 401 }
@str39738 = internal constant [19 x i8] c"src/libcore/cell.rs"
@str39739 = internal constant [35 x i8] c"RefCell<T> already mutably borrowed"
@str39740 = internal constant [27 x i8] c"RefCell<T> already borrowed"
@str39744 = internal constant [19 x i8] c"src/libcore/char.rs"
@ref82056 = internal unnamed_addr constant [1 x %str_slice] [%str_slice { i8* getelementptr inbounds ([4 x i8]* @str39758, i32 0, i32 0), i32 4 }]
@ref82083 = internal unnamed_addr constant [2 x %str_slice] [%str_slice { i8* getelementptr inbounds ([5 x i8]* @str39759, i32 0, i32 0), i32 5 }, %str_slice { i8* getelementptr inbounds ([1 x i8]* @str39718, i32 0, i32 0), i32 1 }]
@str39760 = internal constant [21 x i8] c"src/libcore/option.rs"
@ref72983 = internal unnamed_addr constant [1 x %str_slice] [%str_slice { i8* getelementptr inbounds ([0 x i8]* @str39701, i32 0, i32 0), i32 0 }]
@str39761 = internal constant [43 x i8] c"called `Option::unwrap()` on a `None` value"
@str39764 = internal constant [21 x i8] c"src/libcore/result.rs"
@ref85501 = internal unnamed_addr constant [1 x %str_slice] [%str_slice { i8* getelementptr inbounds ([45 x i8]* @str39765, i32 0, i32 0), i32 45 }]
@str39778 = internal constant [20 x i8] c"src/libcore/slice.rs"
@str39781 = internal constant [42 x i8] c"assertion failed: index.start <= index.end"
@str39782 = internal constant [41 x i8] c"assertion failed: index.end <= self.len()"
@str39783 = internal constant [38 x i8] c"assertion failed: dst.len() >= len_src"
@ref115449 = internal unnamed_addr constant [1 x %str_slice] [%str_slice { i8* getelementptr inbounds ([2 x i8]* @str39755, i32 0, i32 0), i32 2 }]
@ref125546 = internal unnamed_addr constant [1 x %str_slice] [%str_slice { i8* getelementptr inbounds ([1 x i8]* @str39959, i32 0, i32 0), i32 1 }]
@ref125736 = internal unnamed_addr constant [1 x %str_slice] [%str_slice { i8* getelementptr inbounds ([1 x i8]* @str39960, i32 0, i32 0), i32 1 }]
@str39960 = internal constant [1 x i8] c"]"
@str39959 = internal constant [1 x i8] c"["
@str39718 = internal constant [1 x i8] c")"
@str39755 = internal constant [2 x i8] c", "
@str39765 = internal constant [45 x i8] c"called `Result::unwrap()` on an `Err` value: "
@str39701 = internal constant [0 x i8] zeroinitializer
@str39759 = internal constant [5 x i8] c"Some("
@str39758 = internal constant [4 x i8] c"None"
@str39902 = internal constant [22 x i8] c"src/libcore/fmt/mod.rs"
@str39858 = internal constant [2 x i8] c": "
@str39859 = internal constant [22 x i8] c"src/libcore/fmt/num.rs"
@str39821 = internal constant [22 x i8] c"src/libcore/str/mod.rs"
@str39843 = internal constant [42 x i8] c"slice_chars: `end` is beyond end of string"
@str39842 = internal constant [44 x i8] c"slice_chars: `begin` is beyond end of string"
@ref96305 = internal unnamed_addr constant [2 x %str_slice] [%str_slice { i8* getelementptr inbounds ([12 x i8]* @str39800, i32 0, i32 0), i32 12 }, %str_slice { i8* getelementptr inbounds ([1 x i8]* @str39718, i32 0, i32 0), i32 1 }]
@str39800 = internal constant [12 x i8] c"InvalidByte("
@ref96341 = internal unnamed_addr constant [1 x %str_slice] [%str_slice { i8* getelementptr inbounds ([8 x i8]* @str39801, i32 0, i32 0), i32 8 }]
@str39801 = internal constant [8 x i8] c"TooShort"
@ref73034 = internal unnamed_addr constant [2 x %str_slice] [%str_slice { i8* getelementptr inbounds ([32 x i8]* @str39746, i32 0, i32 0), i32 32 }, %str_slice { i8* getelementptr inbounds ([18 x i8]* @str39747, i32 0, i32 0), i32 18 }]
@str39746 = internal constant [32 x i8] c"index out of bounds: the len is "
@str39747 = internal constant [18 x i8] c" but the index is "
@ref114404 = internal unnamed_addr constant [1 x %str_slice] [%str_slice { i8* getelementptr inbounds ([1 x i8]* @str39914, i32 0, i32 0), i32 1 }]
@str39914 = internal constant [1 x i8] c"\22"
@ref106954 = internal unnamed_addr constant [2 x %str_slice] [%str_slice { i8* getelementptr inbounds ([27 x i8]* @str39857, i32 0, i32 0), i32 27 }, %str_slice { i8* getelementptr inbounds ([2 x i8]* @str39858, i32 0, i32 0), i32 2 }]
@str39857 = internal constant [27 x i8] c"number not in the range 0.."

; Function Attrs: nounwind
declare void @llvm.lifetime.start(i64, i8* nocapture) unnamed_addr #0

; Function Attrs: nounwind
declare void @llvm.memcpy.p0i8.p0i8.i32(i8* nocapture, i8* nocapture readonly, i32, i32, i1) unnamed_addr #0

; Function Attrs: nounwind
declare void @llvm.lifetime.end(i64, i8* nocapture) unnamed_addr #0

; Function Attrs: nounwind
declare void @free(i8* nocapture) unnamed_addr #0

; Function Attrs: nounwind
declare void @llvm.memset.p0i8.i32(i8* nocapture, i8, i32, i32, i1) #0

; Function Attrs: nounwind
declare noalias i8* @malloc(i32) unnamed_addr #0

; Function Attrs: uwtable
define internal fastcc void @_ZN4main20hfc53cbffee892dbekcaE() unnamed_addr #1 {
entry-block:
  %0 = alloca %"2.core::fmt::Arguments", align 8
  %1 = alloca %"2.core::fmt::Arguments", align 8
  %2 = alloca [1 x %"2.core::fmt::ArgumentV1"], align 8
  %arena.i = alloca %"3.collections::vec::Vec<std::ffi::c_str::CString>", align 8
  %arg1.i = alloca i64, align 8
  %3 = alloca i64, align 8
  %4 = alloca i64, align 8
  %.sroa.7.i = alloca [6 x i32], align 4
  %arg.i = alloca %"10.mithril::mithril::core::Node", align 8
  %5 = alloca i64, align 8
  %document = alloca %"8.webplatform::Document", align 8
  %body = alloca %"8.webplatform::HtmlNode", align 8
  %6 = bitcast %"8.webplatform::Document"* %document to i8*
  call void @llvm.lifetime.start(i64 4, i8* %6)
  %7 = load i64* bitcast ({ i8*, i32 }* @const2151 to i64*), align 8
  %arg.sroa.0.0.extract.trunc.i.i.i = trunc i64 %7 to i32
  %8 = inttoptr i32 %arg.sroa.0.0.extract.trunc.i.i.i to i8*
  %9 = tail call i32 (i8*, ...)* @emscripten_asm_const_int(i8* %8)
  %10 = tail call i8* @malloc(i32 24), !noalias !0
  %11 = icmp eq i8* %10, null
  br i1 %11, label %then-block-4193-.i.i.i, label %_ZN4init20he7a759a44a481c42CIaE.exit

then-block-4193-.i.i.i:                           ; preds = %entry-block
  tail call fastcc void @_ZN3oom20h02f01d343467389cTUaE()
  unreachable

_ZN4init20he7a759a44a481c42CIaE.exit:             ; preds = %entry-block
  %.sroa.013.0..sroa_cast15.i = bitcast i8* %10 to { i8*, void (i8*)** }**
  store { i8*, void (i8*)** }* inttoptr (i32 1 to { i8*, void (i8*)** }*), { i8*, void (i8*)** }** %.sroa.013.0..sroa_cast15.i, align 4
  %.sroa.7.0..sroa_idx.i = getelementptr inbounds i8* %10, i32 4
  %.sroa.7.0..sroa_cast20.i = bitcast i8* %.sroa.7.0..sroa_idx.i to i32*
  store i32 0, i32* %.sroa.7.0..sroa_cast20.i, align 4
  %.sroa.8.0..sroa_idx.i = getelementptr inbounds i8* %10, i32 8
  %.sroa.8.0..sroa_cast27.i = bitcast i8* %.sroa.8.0..sroa_idx.i to i32*
  store i32 0, i32* %.sroa.8.0..sroa_cast27.i, align 4
  %.sroa.9.0..sroa_idx.i = getelementptr inbounds i8* %10, i32 12
  %.sroa.9.0..sroa_cast34.i = bitcast i8* %.sroa.9.0..sroa_idx.i to i32*
  store i32 0, i32* %.sroa.9.0..sroa_cast34.i, align 4
  %12 = getelementptr inbounds i8* %10, i32 16
  %13 = bitcast i8* %12 to i32*
  store i32 1, i32* %13, align 4, !noalias !0
  %14 = getelementptr inbounds i8* %10, i32 20
  %15 = bitcast i8* %14 to i32*
  store i32 1, i32* %15, align 4, !noalias !0
  %16 = ptrtoint i8* %10 to i32
  %17 = bitcast %"8.webplatform::Document"* %document to i32*
  store i32 %16, i32* %17, align 8
  %18 = bitcast %"8.webplatform::HtmlNode"* %body to i8*
  call void @llvm.lifetime.start(i64 12, i8* %18)
  %19 = load i64* bitcast (%str_slice* @const152 to i64*), align 8
  %20 = bitcast %"3.collections::vec::Vec<std::ffi::c_str::CString>"* %arena.i to i8*
  call void @llvm.lifetime.start(i64 12, i8* %20), !noalias !3
  %21 = bitcast %"3.collections::vec::Vec<std::ffi::c_str::CString>"* %arena.i to i32*
  store i32 1, i32* %21, align 8, !noalias !3, !alias.scope !8
  %22 = getelementptr inbounds %"3.collections::vec::Vec<std::ffi::c_str::CString>"* %arena.i, i32 0, i32 1
  store i32 0, i32* %22, align 4, !noalias !3, !alias.scope !8
  %23 = getelementptr inbounds %"3.collections::vec::Vec<std::ffi::c_str::CString>"* %arena.i, i32 0, i32 2
  store i32 0, i32* %23, align 8, !noalias !3, !alias.scope !8
  %24 = load i64* bitcast ({ i8*, i32 }* @const1826 to i64*), align 8, !noalias !3
  %tmpcast21.i = bitcast i64* %arg1.i to %str_slice*
  %25 = bitcast i64* %arg1.i to i8*
  call void @llvm.lifetime.start(i64 8, i8* %25), !noalias !3
  store i64 %19, i64* %arg1.i, align 8, !noalias !3
  %26 = invoke fastcc i32 @"_ZN27_$RF$$u27$a$u20$str.Interop6as_int20h100746a4d6572c9f5aaE"(%str_slice* noalias nocapture dereferenceable(8) %tmpcast21.i, %"3.collections::vec::Vec<std::ffi::c_str::CString>"* noalias dereferenceable(12) %arena.i)
          to label %normal-return2.i unwind label %unwind_ast_1812_3.i, !noalias !3

clean_custom_.i:                                  ; preds = %clean_ast_2287_.i.i.i, %unwind_ast_1812_3.i
  call void @llvm.lifetime.end(i64 12, i8* %20), !noalias !3
  br label %unwind_ast_136_.body

normal-return2.i:                                 ; preds = %_ZN4init20he7a759a44a481c42CIaE.exit
  %arg.sroa.0.0.extract.trunc.i.i.i63 = trunc i64 %24 to i32
  %27 = inttoptr i32 %arg.sroa.0.0.extract.trunc.i.i.i63 to i8*
  call void @llvm.lifetime.end(i64 8, i8* %25), !noalias !3
  %28 = invoke i32 (i8*, ...)* @emscripten_asm_const_int(i8* %27, i32 %26)
          to label %.noexc68 unwind label %unwind_ast_136_

.noexc68:                                         ; preds = %normal-return2.i
  %arena.idx.i = getelementptr %"3.collections::vec::Vec<std::ffi::c_str::CString>"* %arena.i, i32 0, i32 0, i32 0, i32 0
  %arena.idx.val.i = load %"1.std::ffi::c_str::CString"** %arena.idx.i, align 8, !noalias !3, !alias.scope !13
  %arena.idx22.val.i = load i32* %22, align 4, !noalias !3, !alias.scope !13
  %arena.idx23.val.i = load i32* %23, align 8, !noalias !3, !alias.scope !13
  %29 = icmp eq i32 %arena.idx23.val.i, 0
  br i1 %29, label %"_ZN53collections..vec..Vec$LT$std..ffi..c_str..CString$GT$14glue_drop.484817h91657bcd60bc321aE.exit40.i", label %then-block-2270-.i.i30.i

then-block-2270-.i.i30.i:                         ; preds = %.noexc68
  %30 = getelementptr inbounds %"1.std::ffi::c_str::CString"* %arena.idx.val.i, i32 %arena.idx22.val.i
  %31 = icmp eq i32 %arena.idx22.val.i, 0
  %32 = bitcast %"1.std::ffi::c_str::CString"* %arena.idx.val.i to i8*
  br i1 %31, label %clean_ast_2287_.i.i39.i, label %"_ZN5slice36Iter$LT$$u27$a$C$$u20$T$GT$.Iterator4next20h2325431166871589108E.exit.i.i34.i"

"_ZN5slice36Iter$LT$$u27$a$C$$u20$T$GT$.Iterator4next20h2325431166871589108E.exit.i.i34.i": ; preds = %loop_body.backedge.i.i35.i, %then-block-2270-.i.i30.i
  %.idx.val2425.i.i31.i = phi %"1.std::ffi::c_str::CString"* [ %33, %loop_body.backedge.i.i35.i ], [ %arena.idx.val.i, %then-block-2270-.i.i30.i ]
  %33 = getelementptr inbounds %"1.std::ffi::c_str::CString"* %.idx.val2425.i.i31.i, i32 1
  %tmp.sroa.69.0..sroa_idx10.i.i.i32.i = getelementptr inbounds %"1.std::ffi::c_str::CString"* %.idx.val2425.i.i31.i, i32 0, i32 0, i32 2
  %tmp.sroa.69.0.copyload.i.i.i33.i = load i32* %tmp.sroa.69.0..sroa_idx10.i.i.i32.i, align 4, !noalias !16
  %34 = icmp eq i32 %tmp.sroa.69.0.copyload.i.i.i33.i, 0
  br i1 %34, label %loop_body.backedge.i.i35.i, label %then-block-2270-.i.i.i.i.i38.i

loop_body.backedge.i.i35.i:                       ; preds = %then-block-2270-.i.i.i.i.i38.i, %"_ZN5slice36Iter$LT$$u27$a$C$$u20$T$GT$.Iterator4next20h2325431166871589108E.exit.i.i34.i"
  %35 = icmp eq %"1.std::ffi::c_str::CString"* %33, %30
  br i1 %35, label %clean_ast_2287_.i.i39.i, label %"_ZN5slice36Iter$LT$$u27$a$C$$u20$T$GT$.Iterator4next20h2325431166871589108E.exit.i.i34.i"

then-block-2270-.i.i.i.i.i38.i:                   ; preds = %"_ZN5slice36Iter$LT$$u27$a$C$$u20$T$GT$.Iterator4next20h2325431166871589108E.exit.i.i34.i"
  %tmp.sroa.0.0..sroa_idx.i.i.i36.i = getelementptr inbounds %"1.std::ffi::c_str::CString"* %.idx.val2425.i.i31.i, i32 0, i32 0, i32 0, i32 0, i32 0
  %tmp.sroa.0.0.copyload.i.i.i37.i = load i8** %tmp.sroa.0.0..sroa_idx.i.i.i36.i, align 4, !noalias !16
  call void @free(i8* %tmp.sroa.0.0.copyload.i.i.i37.i) #0, !noalias !19
  br label %loop_body.backedge.i.i35.i

clean_ast_2287_.i.i39.i:                          ; preds = %loop_body.backedge.i.i35.i, %then-block-2270-.i.i30.i
  call void @free(i8* %32) #0, !noalias !22
  br label %"_ZN53collections..vec..Vec$LT$std..ffi..c_str..CString$GT$14glue_drop.484817h91657bcd60bc321aE.exit40.i"

"_ZN53collections..vec..Vec$LT$std..ffi..c_str..CString$GT$14glue_drop.484817h91657bcd60bc321aE.exit40.i": ; preds = %clean_ast_2287_.i.i39.i, %.noexc68
  call void @llvm.lifetime.end(i64 12, i8* %20), !noalias !3
  %36 = icmp slt i32 %28, 0
  br i1 %36, label %match_else.i, label %normal-return1

unwind_ast_1812_3.i:                              ; preds = %_ZN4init20he7a759a44a481c42CIaE.exit
  %37 = landingpad { i8*, i32 } personality void ()* @rust_eh_personality
          cleanup
  %arena.idx24.i = getelementptr %"3.collections::vec::Vec<std::ffi::c_str::CString>"* %arena.i, i32 0, i32 0, i32 0, i32 0
  %arena.idx24.val.i = load %"1.std::ffi::c_str::CString"** %arena.idx24.i, align 8, !noalias !3, !alias.scope !23
  %arena.idx25.val.i = load i32* %22, align 4, !noalias !3, !alias.scope !23
  %arena.idx26.val.i = load i32* %23, align 8, !noalias !3, !alias.scope !23
  %38 = icmp eq i32 %arena.idx26.val.i, 0
  br i1 %38, label %clean_custom_.i, label %then-block-2270-.i.i.i

then-block-2270-.i.i.i:                           ; preds = %unwind_ast_1812_3.i
  %39 = getelementptr inbounds %"1.std::ffi::c_str::CString"* %arena.idx24.val.i, i32 %arena.idx25.val.i
  %40 = icmp eq i32 %arena.idx25.val.i, 0
  %41 = bitcast %"1.std::ffi::c_str::CString"* %arena.idx24.val.i to i8*
  br i1 %40, label %clean_ast_2287_.i.i.i, label %"_ZN5slice36Iter$LT$$u27$a$C$$u20$T$GT$.Iterator4next20h2325431166871589108E.exit.i.i.i"

"_ZN5slice36Iter$LT$$u27$a$C$$u20$T$GT$.Iterator4next20h2325431166871589108E.exit.i.i.i": ; preds = %loop_body.backedge.i.i.i, %then-block-2270-.i.i.i
  %.idx.val2425.i.i.i = phi %"1.std::ffi::c_str::CString"* [ %42, %loop_body.backedge.i.i.i ], [ %arena.idx24.val.i, %then-block-2270-.i.i.i ]
  %42 = getelementptr inbounds %"1.std::ffi::c_str::CString"* %.idx.val2425.i.i.i, i32 1
  %tmp.sroa.69.0..sroa_idx10.i.i.i.i = getelementptr inbounds %"1.std::ffi::c_str::CString"* %.idx.val2425.i.i.i, i32 0, i32 0, i32 2
  %tmp.sroa.69.0.copyload.i.i.i.i = load i32* %tmp.sroa.69.0..sroa_idx10.i.i.i.i, align 4, !noalias !26
  %43 = icmp eq i32 %tmp.sroa.69.0.copyload.i.i.i.i, 0
  br i1 %43, label %loop_body.backedge.i.i.i, label %then-block-2270-.i.i.i.i.i.i

loop_body.backedge.i.i.i:                         ; preds = %then-block-2270-.i.i.i.i.i.i, %"_ZN5slice36Iter$LT$$u27$a$C$$u20$T$GT$.Iterator4next20h2325431166871589108E.exit.i.i.i"
  %44 = icmp eq %"1.std::ffi::c_str::CString"* %42, %39
  br i1 %44, label %clean_ast_2287_.i.i.i, label %"_ZN5slice36Iter$LT$$u27$a$C$$u20$T$GT$.Iterator4next20h2325431166871589108E.exit.i.i.i"

then-block-2270-.i.i.i.i.i.i:                     ; preds = %"_ZN5slice36Iter$LT$$u27$a$C$$u20$T$GT$.Iterator4next20h2325431166871589108E.exit.i.i.i"
  %tmp.sroa.0.0..sroa_idx.i.i.i.i64 = getelementptr inbounds %"1.std::ffi::c_str::CString"* %.idx.val2425.i.i.i, i32 0, i32 0, i32 0, i32 0, i32 0
  %tmp.sroa.0.0.copyload.i.i.i.i65 = load i8** %tmp.sroa.0.0..sroa_idx.i.i.i.i64, align 4, !noalias !26
  call void @free(i8* %tmp.sroa.0.0.copyload.i.i.i.i65) #0, !noalias !29
  br label %loop_body.backedge.i.i.i

clean_ast_2287_.i.i.i:                            ; preds = %loop_body.backedge.i.i.i, %then-block-2270-.i.i.i
  call void @free(i8* %41) #0, !noalias !32
  br label %clean_custom_.i

match_else.i:                                     ; preds = %"_ZN53collections..vec..Vec$LT$std..ffi..c_str..CString$GT$14glue_drop.484817h91657bcd60bc321aE.exit40.i"
  %.sroa.9.0.copyload = load %"8.webplatform::Document"** bitcast (i8* getelementptr inbounds ({ i32, [12 x i8] }* @const85708, i32 0, i32 1, i32 4) to %"8.webplatform::Document"**), align 8
  invoke fastcc void @_ZN9panicking5panic20h35992d0a914d4c10J8sE({ %str_slice, %str_slice, i32 }* noalias readonly dereferenceable(20) @"_ZN6option15Option$LT$T$GT$6unwrap14_MSG_FILE_LINE20h4bd88ad8aef500836KvE")
          to label %normal-return.i unwind label %"_ZN49core..option..Option$LT$webplatform..HtmlNode$GT$14glue_drop.159917h32c5e15769a7a553E.exit9.i", !noalias !33

normal-return.i:                                  ; preds = %match_else.i
  unreachable

"_ZN49core..option..Option$LT$webplatform..HtmlNode$GT$14glue_drop.159917h32c5e15769a7a553E.exit9.i": ; preds = %match_else.i
  %45 = landingpad { i8*, i32 } personality void ()* @rust_eh_personality
          cleanup
  br label %unwind_ast_136_.body

unwind_ast_136_:                                  ; preds = %normal-return2.i
  %46 = landingpad { i8*, i32 } personality void ()* @rust_eh_personality
          cleanup
  br label %unwind_ast_136_.body

unwind_ast_136_.body:                             ; preds = %unwind_ast_136_, %"_ZN49core..option..Option$LT$webplatform..HtmlNode$GT$14glue_drop.159917h32c5e15769a7a553E.exit9.i", %clean_custom_.i
  %eh.lpad-body = phi { i8*, i32 } [ %45, %"_ZN49core..option..Option$LT$webplatform..HtmlNode$GT$14glue_drop.159917h32c5e15769a7a553E.exit9.i" ], [ %46, %unwind_ast_136_ ], [ %37, %clean_custom_.i ]
  %.fca.0.extract = extractvalue { i8*, i32 } %eh.lpad-body, 0
  %.fca.1.extract = extractvalue { i8*, i32 } %eh.lpad-body, 1
  %.idx.i = getelementptr %"8.webplatform::Document"* %document, i32 0, i32 0, i32 0, i32 0
  %.idx.val.i = load %"5.alloc::rc::RcBox<core::cell::RefCell<collections::vec::Vec<Box<core::ops::FnMut(webplatform::Event)>>>>"** %.idx.i, align 8, !alias.scope !37
  %47 = icmp eq %"5.alloc::rc::RcBox<core::cell::RefCell<collections::vec::Vec<Box<core::ops::FnMut(webplatform::Event)>>>>"* %.idx.val.i, null
  br i1 %47, label %_ZN21webplatform..Document14glue_drop.160317hdbcaacc088d68e66E.exit, label %then-block-1080-.i.i.i

then-block-1080-.i.i.i:                           ; preds = %unwind_ast_136_.body
  %48 = getelementptr inbounds %"5.alloc::rc::RcBox<core::cell::RefCell<collections::vec::Vec<Box<core::ops::FnMut(webplatform::Event)>>>>"* %.idx.val.i, i32 0, i32 1, i32 0, i32 0
  %49 = load i32* %48, align 4, !noalias !37
  %50 = add i32 %49, -1
  store i32 %50, i32* %48, align 4, !noalias !37
  %51 = icmp eq i32 %50, 0
  br i1 %51, label %then-block-1089-.i.i.i, label %_ZN21webplatform..Document14glue_drop.160317hdbcaacc088d68e66E.exit

then-block-1089-.i.i.i:                           ; preds = %then-block-1080-.i.i.i
  %tmp.sroa.0.0..sroa_idx.i.i.i.i = getelementptr inbounds %"5.alloc::rc::RcBox<core::cell::RefCell<collections::vec::Vec<Box<core::ops::FnMut(webplatform::Event)>>>>"* %.idx.val.i, i32 0, i32 0, i32 0, i32 0, i32 0, i32 0, i32 0
  %tmp.sroa.0.0.copyload.i.i.i.i = load { i8*, void (i8*)** }** %tmp.sroa.0.0..sroa_idx.i.i.i.i, align 4, !noalias !40
  %tmp.sroa.6.0..sroa_idx5.i.i.i.i = getelementptr inbounds %"5.alloc::rc::RcBox<core::cell::RefCell<collections::vec::Vec<Box<core::ops::FnMut(webplatform::Event)>>>>"* %.idx.val.i, i32 0, i32 0, i32 0, i32 0, i32 1
  %tmp.sroa.6.0.copyload.i.i.i.i = load i32* %tmp.sroa.6.0..sroa_idx5.i.i.i.i, align 4, !noalias !40
  %tmp.sroa.7.0..sroa_idx9.i.i.i.i = getelementptr inbounds %"5.alloc::rc::RcBox<core::cell::RefCell<collections::vec::Vec<Box<core::ops::FnMut(webplatform::Event)>>>>"* %.idx.val.i, i32 0, i32 0, i32 0, i32 0, i32 2
  %tmp.sroa.7.0.copyload.i.i.i.i = load i32* %tmp.sroa.7.0..sroa_idx9.i.i.i.i, align 4, !noalias !40
  %52 = icmp eq i32 %tmp.sroa.7.0.copyload.i.i.i.i, 0
  br i1 %52, label %"_ZN109core..cell..RefCell$LT$collections..vec..Vec$LT$Box$LT$core..ops..FnMut$LP$webplatform..Event$RP$$GT$$GT$$GT$14glue_drop.163717h035331ac4119b971E.exit.i.i.i", label %then-block-456-.i.i.i.i.i.i.i

then-block-456-.i.i.i.i.i.i.i:                    ; preds = %then-block-1089-.i.i.i
  %53 = getelementptr inbounds { i8*, void (i8*)** }* %tmp.sroa.0.0.copyload.i.i.i.i, i32 %tmp.sroa.6.0.copyload.i.i.i.i
  %54 = icmp eq i32 %tmp.sroa.6.0.copyload.i.i.i.i, 0
  %55 = bitcast { i8*, void (i8*)** }* %tmp.sroa.0.0.copyload.i.i.i.i to i8*
  br i1 %54, label %clean_ast_473_.i.i.i.i.i.i.i, label %"_ZN5slice36Iter$LT$$u27$a$C$$u20$T$GT$.Iterator4next20h5639315273421375925E.exit.lr.ph.i.i.i.i.i.i.i"

"_ZN5slice36Iter$LT$$u27$a$C$$u20$T$GT$.Iterator4next20h5639315273421375925E.exit.lr.ph.i.i.i.i.i.i.i": ; preds = %then-block-456-.i.i.i.i.i.i.i
  %56 = bitcast i64* %5 to i8*
  br label %"_ZN5slice36Iter$LT$$u27$a$C$$u20$T$GT$.Iterator4next20h5639315273421375925E.exit.i.i.i.i.i.i.i"

"_ZN5slice36Iter$LT$$u27$a$C$$u20$T$GT$.Iterator4next20h5639315273421375925E.exit.i.i.i.i.i.i.i": ; preds = %"_ZN53Box$LT$core..ops..FnMut$LP$webplatform..Event$RP$$GT$14glue_drop.164617he34af29bc0faed96E.exit.i.i.i.i.i.i.i", %"_ZN5slice36Iter$LT$$u27$a$C$$u20$T$GT$.Iterator4next20h5639315273421375925E.exit.lr.ph.i.i.i.i.i.i.i"
  %.idx.val1920.i.i.i.i.i.i.i = phi { i8*, void (i8*)** }* [ %tmp.sroa.0.0.copyload.i.i.i.i, %"_ZN5slice36Iter$LT$$u27$a$C$$u20$T$GT$.Iterator4next20h5639315273421375925E.exit.lr.ph.i.i.i.i.i.i.i" ], [ %57, %"_ZN53Box$LT$core..ops..FnMut$LP$webplatform..Event$RP$$GT$14glue_drop.164617he34af29bc0faed96E.exit.i.i.i.i.i.i.i" ]
  %57 = getelementptr inbounds { i8*, void (i8*)** }* %.idx.val1920.i.i.i.i.i.i.i, i32 1
  call void @llvm.lifetime.start(i64 8, i8* %56), !noalias !43
  %58 = bitcast { i8*, void (i8*)** }* %.idx.val1920.i.i.i.i.i.i.i to i64*
  %59 = load i64* %58, align 4, !noalias !46
  store i64 %59, i64* %5, align 8, !noalias !43, !alias.scope !49
  %trunc.i.i.i.i.i.i.i = trunc i64 %59 to i32
  %60 = icmp eq i32 %trunc.i.i.i.i.i.i.i, 0
  br i1 %60, label %"_ZN53Box$LT$core..ops..FnMut$LP$webplatform..Event$RP$$GT$14glue_drop.164617he34af29bc0faed96E.exit.i.i.i.i.i.i.i", label %cond.i.i.i.i.i.i.i.i

cond.i.i.i.i.i.i.i.i:                             ; preds = %"_ZN5slice36Iter$LT$$u27$a$C$$u20$T$GT$.Iterator4next20h5639315273421375925E.exit.i.i.i.i.i.i.i"
  %61 = lshr i64 %59, 32
  %62 = trunc i64 %61 to i32
  %63 = inttoptr i32 %62 to void (i8*)**
  %64 = load void (i8*)** %63, align 4, !noalias !43
  call void %64(i8* %56), !noalias !43
  br label %"_ZN53Box$LT$core..ops..FnMut$LP$webplatform..Event$RP$$GT$14glue_drop.164617he34af29bc0faed96E.exit.i.i.i.i.i.i.i"

"_ZN53Box$LT$core..ops..FnMut$LP$webplatform..Event$RP$$GT$14glue_drop.164617he34af29bc0faed96E.exit.i.i.i.i.i.i.i": ; preds = %cond.i.i.i.i.i.i.i.i, %"_ZN5slice36Iter$LT$$u27$a$C$$u20$T$GT$.Iterator4next20h5639315273421375925E.exit.i.i.i.i.i.i.i"
  call void @llvm.lifetime.end(i64 8, i8* %56), !noalias !43
  %65 = icmp eq { i8*, void (i8*)** }* %57, %53
  br i1 %65, label %clean_ast_473_.i.i.i.i.i.i.i, label %"_ZN5slice36Iter$LT$$u27$a$C$$u20$T$GT$.Iterator4next20h5639315273421375925E.exit.i.i.i.i.i.i.i"

clean_ast_473_.i.i.i.i.i.i.i:                     ; preds = %"_ZN53Box$LT$core..ops..FnMut$LP$webplatform..Event$RP$$GT$14glue_drop.164617he34af29bc0faed96E.exit.i.i.i.i.i.i.i", %then-block-456-.i.i.i.i.i.i.i
  call void @free(i8* %55) #0, !noalias !43
  br label %"_ZN109core..cell..RefCell$LT$collections..vec..Vec$LT$Box$LT$core..ops..FnMut$LP$webplatform..Event$RP$$GT$$GT$$GT$14glue_drop.163717h035331ac4119b971E.exit.i.i.i"

"_ZN109core..cell..RefCell$LT$collections..vec..Vec$LT$Box$LT$core..ops..FnMut$LP$webplatform..Event$RP$$GT$$GT$$GT$14glue_drop.163717h035331ac4119b971E.exit.i.i.i": ; preds = %clean_ast_473_.i.i.i.i.i.i.i, %then-block-1089-.i.i.i
  %66 = getelementptr inbounds %"5.alloc::rc::RcBox<core::cell::RefCell<collections::vec::Vec<Box<core::ops::FnMut(webplatform::Event)>>>>"* %.idx.val.i, i32 0, i32 2, i32 0, i32 0
  %67 = load i32* %66, align 4, !noalias !37
  %68 = add i32 %67, -1
  store i32 %68, i32* %66, align 4, !noalias !37
  %69 = icmp eq i32 %68, 0
  br i1 %69, label %then-block-1105-.i.i.i, label %_ZN21webplatform..Document14glue_drop.160317hdbcaacc088d68e66E.exit

then-block-1105-.i.i.i:                           ; preds = %"_ZN109core..cell..RefCell$LT$collections..vec..Vec$LT$Box$LT$core..ops..FnMut$LP$webplatform..Event$RP$$GT$$GT$$GT$14glue_drop.163717h035331ac4119b971E.exit.i.i.i"
  %70 = bitcast %"5.alloc::rc::RcBox<core::cell::RefCell<collections::vec::Vec<Box<core::ops::FnMut(webplatform::Event)>>>>"* %.idx.val.i to i8*
  call void @free(i8* %70) #0, !noalias !37
  br label %_ZN21webplatform..Document14glue_drop.160317hdbcaacc088d68e66E.exit

_ZN21webplatform..Document14glue_drop.160317hdbcaacc088d68e66E.exit: ; preds = %then-block-1105-.i.i.i, %"_ZN109core..cell..RefCell$LT$collections..vec..Vec$LT$Box$LT$core..ops..FnMut$LP$webplatform..Event$RP$$GT$$GT$$GT$14glue_drop.163717h035331ac4119b971E.exit.i.i.i", %then-block-1080-.i.i.i, %unwind_ast_136_.body
  call void @llvm.lifetime.end(i64 4, i8* %6)
  br label %resume

resume:                                           ; preds = %_ZN21webplatform..Document14glue_drop.160317hdbcaacc088d68e66E.exit35, %_ZN21webplatform..Document14glue_drop.160317hdbcaacc088d68e66E.exit
  %.sroa.4.0 = phi i32 [ %.fca.1.extract10, %_ZN21webplatform..Document14glue_drop.160317hdbcaacc088d68e66E.exit35 ], [ %.fca.1.extract, %_ZN21webplatform..Document14glue_drop.160317hdbcaacc088d68e66E.exit ]
  %.sroa.0.0 = phi i8* [ %.fca.0.extract8, %_ZN21webplatform..Document14glue_drop.160317hdbcaacc088d68e66E.exit35 ], [ %.fca.0.extract, %_ZN21webplatform..Document14glue_drop.160317hdbcaacc088d68e66E.exit ]
  %.fca.0.insert = insertvalue { i8*, i32 } undef, i8* %.sroa.0.0, 0
  %.fca.1.insert = insertvalue { i8*, i32 } %.fca.0.insert, i32 %.sroa.4.0, 1
  resume { i8*, i32 } %.fca.1.insert

normal-return1:                                   ; preds = %"_ZN53collections..vec..Vec$LT$std..ffi..c_str..CString$GT$14glue_drop.484817h91657bcd60bc321aE.exit40.i"
  %.sroa.7.4..sroa_idx = getelementptr inbounds %"8.webplatform::HtmlNode"* %body, i32 0, i32 0
  store i32 %28, i32* %.sroa.7.4..sroa_idx, align 8
  %.sroa.9.4..sroa_idx85 = getelementptr inbounds %"8.webplatform::HtmlNode"* %body, i32 0, i32 1
  store %"8.webplatform::Document"* %document, %"8.webplatform::Document"** %.sroa.9.4..sroa_idx85, align 4
  %.sroa.10.4..sroa_idx = getelementptr inbounds %"8.webplatform::HtmlNode"* %body, i32 0, i32 2
  store i8 1, i8* %.sroa.10.4..sroa_idx, align 8
  %.sroa.11.4..sroa_raw_idx = getelementptr inbounds i8* %18, i32 9
  call void @llvm.memcpy.p0i8.p0i8.i32(i8* %.sroa.11.4..sroa_raw_idx, i8* getelementptr inbounds ({ i32, [12 x i8] }* @const85708, i32 0, i32 1, i32 9), i32 3, i32 1, i1 false)
  %71 = load i64* bitcast ({ %str_slice }* @const28 to i64*), align 8, !noalias !50
  %72 = load i64* bitcast (%str_slice* @const43 to i64*), align 8, !noalias !56
  %73 = call i8* @malloc(i32 16) #0, !noalias !60
  %74 = icmp eq i8* %73, null
  br i1 %74, label %then-block-912-.i.i.i.i, label %normal-return4.i.i

then-block-912-.i.i.i.i:                          ; preds = %normal-return1
  call fastcc void @_ZN3oom20h02f01d343467389cTUaE()
  unreachable

normal-return4.i.i:                               ; preds = %normal-return1
  call void @llvm.memcpy.p0i8.p0i8.i32(i8* %73, i8* bitcast ({ { %str_slice, { %str_slice } } }* @const50 to i8*), i32 16, i32 4, i1 false), !noalias !56
  %75 = ptrtoint i8* %73 to i32
  %76 = load i64* bitcast (%str_slice* @const65 to i64*), align 8, !noalias !56
  %.sroa.7.0..sroa_cast18.i = bitcast [6 x i32]* %.sroa.7.i to i8*
  call void @llvm.lifetime.start(i64 24, i8* %.sroa.7.0..sroa_cast18.i)
  %77 = call i8* @malloc(i32 36) #0, !noalias !63
  %78 = icmp eq i8* %77, null
  br i1 %78, label %then-block-912-.i.i16.i.i, label %normal-return16.i.i

then-block-912-.i.i16.i.i:                        ; preds = %normal-return4.i.i
  call fastcc void @_ZN3oom20h02f01d343467389cTUaE()
  unreachable

normal-return16.i.i:                              ; preds = %normal-return4.i.i
  %.sroa.0.0..sroa_cast6.i = bitcast i8* %77 to i32*
  store i32 0, i32* %.sroa.0.0..sroa_cast6.i, align 4, !noalias !66
  %.sroa.6.0..sroa_idx.i = getelementptr inbounds i8* %77, i32 4
  %.sroa.6.0..sroa_cast10.i = bitcast i8* %.sroa.6.0..sroa_idx.i to i64*
  store i64 %71, i64* %.sroa.6.0..sroa_cast10.i, align 4, !noalias !66
  %.sroa.7.0..sroa_raw_idx.i = getelementptr inbounds i8* %77, i32 12
  call void @llvm.memcpy.p0i8.p0i8.i32(i8* %.sroa.7.0..sroa_raw_idx.i, i8* %.sroa.7.0..sroa_cast18.i, i32 24, i32 4, i1 false), !noalias !66
  call void @llvm.lifetime.end(i64 24, i8* %.sroa.7.0..sroa_cast18.i)
  call void @llvm.lifetime.end(i64 24, i8* %.sroa.7.0..sroa_cast18.i)
  %79 = ptrtoint i8* %77 to i32
  %80 = call i8* @malloc(i32 36) #0, !noalias !67
  %81 = icmp eq i8* %80, null
  br i1 %81, label %then-block-912-.i.i37.i.i, label %normal-return23.i.i

then-block-912-.i.i37.i.i:                        ; preds = %normal-return16.i.i
  call fastcc void @_ZN3oom20h02f01d343467389cTUaE()
  unreachable

normal-return23.i.i:                              ; preds = %normal-return16.i.i
  call void @llvm.memcpy.p0i8.p0i8.i32(i8* %80, i8* bitcast ({ { i32, %str_slice, [24 x i8] } }* @const100 to i8*), i32 36, i32 4, i1 false), !noalias !56
  %82 = ptrtoint i8* %80 to i32
  %83 = load i64* bitcast (%str_slice* @const106 to i64*), align 8, !noalias !56
  %84 = load i64* bitcast (%str_slice* @const115 to i64*), align 8, !noalias !56
  %85 = call i8* @malloc(i32 32) #0, !noalias !70
  %86 = icmp eq i8* %85, null
  br i1 %86, label %then-block-912-.i.i54.i.i, label %normal-return35.i.i

then-block-912-.i.i54.i.i:                        ; preds = %normal-return23.i.i
  call fastcc void @_ZN3oom20h02f01d343467389cTUaE()
  unreachable

normal-return35.i.i:                              ; preds = %normal-return23.i.i
  %.sroa.0.0..sroa_cast98.i.i = bitcast i8* %85 to i64*
  store i64 %84, i64* %.sroa.0.0..sroa_cast98.i.i, align 4, !noalias !56
  %.sroa.5.0..sroa_idx.i.i = getelementptr inbounds i8* %85, i32 8
  %.sroa.5.0..sroa_cast101.i.i = bitcast i8* %.sroa.5.0..sroa_idx.i.i to i64*
  store i64 %71, i64* %.sroa.5.0..sroa_cast101.i.i, align 4, !noalias !56
  %.sroa.6.0..sroa_raw_idx.i.i = getelementptr inbounds i8* %85, i32 16
  call void @llvm.memcpy.p0i8.p0i8.i32(i8* %.sroa.6.0..sroa_raw_idx.i.i, i8* bitcast ({ %str_slice, { { i8*, i8* } } }* @const120 to i8*), i32 16, i32 4, i1 false), !noalias !56
  %87 = call i8* @malloc(i32 108) #0, !noalias !73
  %88 = icmp eq i8* %87, null
  br i1 %88, label %then-block-912-.i.i9.i.i, label %.noexc13

then-block-912-.i.i9.i.i:                         ; preds = %normal-return35.i.i
  call fastcc void @_ZN3oom20h02f01d343467389cTUaE()
  unreachable

.noexc13:                                         ; preds = %normal-return35.i.i
  %89 = ptrtoint i8* %85 to i32
  %.sroa.0196.0..sroa_cast197 = bitcast i8* %87 to i32*
  store i32 1, i32* %.sroa.0196.0..sroa_cast197, align 4
  %.sroa.5200.0..sroa_idx = getelementptr inbounds i8* %87, i32 4
  %.sroa.5200.0..sroa_cast201 = bitcast i8* %.sroa.5200.0..sroa_idx to i64*
  store i64 %76, i64* %.sroa.5200.0..sroa_cast201, align 4
  %.sroa.6204.0..sroa_idx = getelementptr inbounds i8* %87, i32 12
  %.sroa.6204.0..sroa_cast205 = bitcast i8* %.sroa.6204.0..sroa_idx to i32*
  store i32 1, i32* %.sroa.6204.0..sroa_cast205, align 4
  %.sroa.7208.0..sroa_idx = getelementptr inbounds i8* %87, i32 16
  %.sroa.7208.0..sroa_cast209 = bitcast i8* %.sroa.7208.0..sroa_idx to i32*
  store i32 0, i32* %.sroa.7208.0..sroa_cast209, align 4
  %.sroa.8.0..sroa_idx = getelementptr inbounds i8* %87, i32 20
  %.sroa.8.0..sroa_cast212 = bitcast i8* %.sroa.8.0..sroa_idx to i32*
  store i32 0, i32* %.sroa.8.0..sroa_cast212, align 4
  %.sroa.9215.0..sroa_idx = getelementptr inbounds i8* %87, i32 24
  %.sroa.9215.0..sroa_cast216 = bitcast i8* %.sroa.9215.0..sroa_idx to i32*
  store i32 %79, i32* %.sroa.9215.0..sroa_cast216, align 4
  %.sroa.10219.0..sroa_idx = getelementptr inbounds i8* %87, i32 28
  %.sroa.10219.0..sroa_cast220 = bitcast i8* %.sroa.10219.0..sroa_idx to i32*
  store i32 1, i32* %.sroa.10219.0..sroa_cast220, align 4
  %.sroa.11223.0..sroa_idx = getelementptr inbounds i8* %87, i32 32
  %.sroa.11223.0..sroa_cast224 = bitcast i8* %.sroa.11223.0..sroa_idx to i32*
  store i32 1, i32* %.sroa.11223.0..sroa_cast224, align 4
  %.sroa.12.0..sroa_idx = getelementptr inbounds i8* %87, i32 36
  %.sroa.12.0..sroa_cast227 = bitcast i8* %.sroa.12.0..sroa_idx to i32*
  store i32 1, i32* %.sroa.12.0..sroa_cast227, align 4
  %.sroa.13.0..sroa_idx = getelementptr inbounds i8* %87, i32 40
  %.sroa.13.0..sroa_cast230 = bitcast i8* %.sroa.13.0..sroa_idx to i64*
  store i64 %76, i64* %.sroa.13.0..sroa_cast230, align 4
  %.sroa.14.0..sroa_idx = getelementptr inbounds i8* %87, i32 48
  %.sroa.14.0..sroa_cast233 = bitcast i8* %.sroa.14.0..sroa_idx to i32*
  store i32 1, i32* %.sroa.14.0..sroa_cast233, align 4
  %.sroa.15.0..sroa_idx = getelementptr inbounds i8* %87, i32 52
  %.sroa.15.0..sroa_cast236 = bitcast i8* %.sroa.15.0..sroa_idx to i32*
  store i32 0, i32* %.sroa.15.0..sroa_cast236, align 4
  %.sroa.16.0..sroa_idx = getelementptr inbounds i8* %87, i32 56
  %.sroa.16.0..sroa_cast239 = bitcast i8* %.sroa.16.0..sroa_idx to i32*
  store i32 0, i32* %.sroa.16.0..sroa_cast239, align 4
  %.sroa.17.0..sroa_idx = getelementptr inbounds i8* %87, i32 60
  %.sroa.17.0..sroa_cast242 = bitcast i8* %.sroa.17.0..sroa_idx to i32*
  store i32 %82, i32* %.sroa.17.0..sroa_cast242, align 4
  %.sroa.18.0..sroa_idx = getelementptr inbounds i8* %87, i32 64
  %.sroa.18.0..sroa_cast245 = bitcast i8* %.sroa.18.0..sroa_idx to i32*
  store i32 1, i32* %.sroa.18.0..sroa_cast245, align 4
  %.sroa.19.0..sroa_idx = getelementptr inbounds i8* %87, i32 68
  %.sroa.19.0..sroa_cast248 = bitcast i8* %.sroa.19.0..sroa_idx to i32*
  store i32 1, i32* %.sroa.19.0..sroa_cast248, align 4
  %.sroa.20.0..sroa_idx = getelementptr inbounds i8* %87, i32 72
  %.sroa.20.0..sroa_cast251 = bitcast i8* %.sroa.20.0..sroa_idx to i32*
  store i32 1, i32* %.sroa.20.0..sroa_cast251, align 4
  %.sroa.21.0..sroa_idx = getelementptr inbounds i8* %87, i32 76
  %.sroa.21.0..sroa_cast254 = bitcast i8* %.sroa.21.0..sroa_idx to i64*
  store i64 %83, i64* %.sroa.21.0..sroa_cast254, align 4
  %.sroa.22.0..sroa_idx = getelementptr inbounds i8* %87, i32 84
  %.sroa.22.0..sroa_cast257 = bitcast i8* %.sroa.22.0..sroa_idx to i32*
  store i32 %89, i32* %.sroa.22.0..sroa_cast257, align 4
  %.sroa.23.0..sroa_idx = getelementptr inbounds i8* %87, i32 88
  %.sroa.23.0..sroa_cast260 = bitcast i8* %.sroa.23.0..sroa_idx to i32*
  store i32 2, i32* %.sroa.23.0..sroa_cast260, align 4
  %.sroa.24.0..sroa_idx = getelementptr inbounds i8* %87, i32 92
  %.sroa.24.0..sroa_cast263 = bitcast i8* %.sroa.24.0..sroa_idx to i32*
  store i32 2, i32* %.sroa.24.0..sroa_cast263, align 4
  %.sroa.25.0..sroa_idx = getelementptr inbounds i8* %87, i32 96
  %.sroa.25.0..sroa_cast266 = bitcast i8* %.sroa.25.0..sroa_idx to i32*
  store i32 1, i32* %.sroa.25.0..sroa_cast266, align 4
  %.sroa.26.0..sroa_idx = getelementptr inbounds i8* %87, i32 100
  %.sroa.26.0..sroa_cast269 = bitcast i8* %.sroa.26.0..sroa_idx to i32*
  store i32 0, i32* %.sroa.26.0..sroa_cast269, align 4
  %.sroa.27.0..sroa_idx = getelementptr inbounds i8* %87, i32 104
  %.sroa.27.0..sroa_cast272 = bitcast i8* %.sroa.27.0..sroa_idx to i32*
  store i32 0, i32* %.sroa.27.0..sroa_cast272, align 4
  %90 = ptrtoint i8* %87 to i32
  %91 = bitcast %"10.mithril::mithril::core::Node"* %arg.i to i8*
  call void @llvm.lifetime.start(i64 36, i8* %91), !noalias !66
  %node.i.sroa.0.0..sroa_idx = getelementptr inbounds %"10.mithril::mithril::core::Node"* %arg.i, i32 0, i32 0
  store i32 1, i32* %node.i.sroa.0.0..sroa_idx, align 8
  %node.i.sroa.6.0..sroa_idx96 = getelementptr inbounds %"10.mithril::mithril::core::Node"* %arg.i, i32 0, i32 2
  %node.i.sroa.6.0..sroa_cast97 = bitcast [8 x i32]* %node.i.sroa.6.0..sroa_idx96 to i64*
  store i64 %72, i64* %node.i.sroa.6.0..sroa_cast97, align 4
  %node.i.sroa.7.sroa.0.0.node.i.sroa.7.0..sroa_cast101.sroa_idx = getelementptr inbounds %"10.mithril::mithril::core::Node"* %arg.i, i32 0, i32 2, i32 2
  store i32 %75, i32* %node.i.sroa.7.sroa.0.0.node.i.sroa.7.0..sroa_cast101.sroa_idx, align 4
  %node.i.sroa.7.sroa.6.0.node.i.sroa.7.0..sroa_cast101.sroa_idx307 = getelementptr inbounds %"10.mithril::mithril::core::Node"* %arg.i, i32 0, i32 2, i32 3
  store i32 1, i32* %node.i.sroa.7.sroa.6.0.node.i.sroa.7.0..sroa_cast101.sroa_idx307, align 4
  %node.i.sroa.7.sroa.7.0.node.i.sroa.7.0..sroa_cast101.sroa_idx310 = getelementptr inbounds %"10.mithril::mithril::core::Node"* %arg.i, i32 0, i32 2, i32 4
  store i32 1, i32* %node.i.sroa.7.sroa.7.0.node.i.sroa.7.0..sroa_cast101.sroa_idx310, align 4
  %node.i.sroa.8.sroa.0.0.node.i.sroa.8.0..sroa_cast107.sroa_idx = getelementptr inbounds %"10.mithril::mithril::core::Node"* %arg.i, i32 0, i32 2, i32 5
  store i32 %90, i32* %node.i.sroa.8.sroa.0.0.node.i.sroa.8.0..sroa_cast107.sroa_idx, align 8
  %node.i.sroa.8.sroa.6.0.node.i.sroa.8.0..sroa_cast107.sroa_idx288 = getelementptr inbounds %"10.mithril::mithril::core::Node"* %arg.i, i32 0, i32 2, i32 6
  store i32 3, i32* %node.i.sroa.8.sroa.6.0.node.i.sroa.8.0..sroa_cast107.sroa_idx288, align 4
  %node.i.sroa.8.sroa.7.0.node.i.sroa.8.0..sroa_cast107.sroa_idx291 = getelementptr inbounds %"10.mithril::mithril::core::Node"* %arg.i, i32 0, i32 2, i32 7
  store i32 3, i32* %node.i.sroa.8.sroa.7.0.node.i.sroa.8.0..sroa_cast107.sroa_idx291, align 8
  invoke fastcc void @_ZN7mithril6render6render20he0cf844cb7c28175qcaE(%"8.webplatform::Document"* noalias readonly dereferenceable(4) %document, i32 %28, %"10.mithril::mithril::core::Node"* noalias nocapture dereferenceable(36) %arg.i)
          to label %normal-return2 unwind label %_ZN28mithril..mithril..core..Node14glue_drop.153517h9a88d563dcb082afE.exit.i

_ZN28mithril..mithril..core..Node14glue_drop.153517h9a88d563dcb082afE.exit.i: ; preds = %.noexc13
  %92 = landingpad { i8*, i32 } personality void ()* @rust_eh_personality
          cleanup
  br label %unwind_ast_136_3.body

normal-return2:                                   ; preds = %.noexc13
  call void @llvm.lifetime.end(i64 36, i8* %91), !noalias !66
  invoke void @emscripten_set_main_loop(void ()* @_ZN9leavemebe20h6064376b006a1bb31IaE, i32 0, i32 1)
          to label %normal-return5 unwind label %unwind_ast_136_3

unwind_ast_136_3:                                 ; preds = %normal-return2
  %93 = landingpad { i8*, i32 } personality void ()* @rust_eh_personality
          cleanup
  br label %unwind_ast_136_3.body

unwind_ast_136_3.body:                            ; preds = %unwind_ast_136_3, %_ZN28mithril..mithril..core..Node14glue_drop.153517h9a88d563dcb082afE.exit.i
  %eh.lpad-body12 = phi { i8*, i32 } [ %93, %unwind_ast_136_3 ], [ %92, %_ZN28mithril..mithril..core..Node14glue_drop.153517h9a88d563dcb082afE.exit.i ]
  %.fca.0.extract8 = extractvalue { i8*, i32 } %eh.lpad-body12, 0
  %.fca.1.extract10 = extractvalue { i8*, i32 } %eh.lpad-body12, 1
  %94 = load i8* %.sroa.10.4..sroa_idx, align 8, !range !76
  %95 = icmp eq i8 %94, 0
  br i1 %95, label %_ZN21webplatform..HtmlNode14glue_drop.159617hfa2ba2af9635e857E.exit, label %cond.i14

cond.i14:                                         ; preds = %unwind_ast_136_3.body
  %96 = bitcast %"2.core::fmt::Arguments"* %1 to i8*
  call void @llvm.lifetime.start(i64 24, i8* %96), !noalias !77
  %97 = load i64* bitcast ({ %str_slice*, i32 }* @"_ZN27HtmlNode$LT$$u27$a$GT$.Drop4drop15__STATIC_FMTSTR20hc7c976a00d77dd6dKdaE" to i64*), align 8, !noalias !77
  %98 = bitcast [1 x %"2.core::fmt::ArgumentV1"]* %2 to i8*
  call void @llvm.lifetime.start(i64 8, i8* %98), !noalias !77
  %99 = getelementptr inbounds [1 x %"2.core::fmt::ArgumentV1"]* %2, i32 0, i32 0, i32 1
  store i8 (%"2.core::marker::PhantomData<(&'static str, mithril::mithril::core::AttributeValue)>"*, %"2.core::fmt::Formatter"*)* bitcast (i8 (i32*, %"2.core::fmt::Formatter"*)* @_ZN3fmt3num14i32.fmt..Debug3fmt20hb3c827ce2638bf9abvCE to i8 (%"2.core::marker::PhantomData<(&'static str, mithril::mithril::core::AttributeValue)>"*, %"2.core::fmt::Formatter"*)*), i8 (%"2.core::marker::PhantomData<(&'static str, mithril::mithril::core::AttributeValue)>"*, %"2.core::fmt::Formatter"*)** %99, align 4, !noalias !80, !alias.scope !83
  %100 = bitcast [1 x %"2.core::fmt::ArgumentV1"]* %2 to i32**
  store i32* %.sroa.7.4..sroa_idx, i32** %100, align 8, !noalias !80, !alias.scope !83
  %101 = ptrtoint [1 x %"2.core::fmt::ArgumentV1"]* %2 to i32
  %102 = bitcast %"2.core::fmt::Arguments"* %1 to i64*
  store i64 %97, i64* %102, align 8, !noalias !85, !alias.scope !89
  %103 = getelementptr inbounds %"2.core::fmt::Arguments"* %1, i32 0, i32 1
  %104 = bitcast %"2.core::option::Option<&'static [core::fmt::rt::v1::Argument]>"* %103 to i64*
  store i64 0, i64* %104, align 8, !noalias !85, !alias.scope !89
  %.sroa_idx9.i = getelementptr inbounds %"2.core::fmt::Arguments"* %1, i32 0, i32 2
  %.sroa_cast10.i = bitcast { %"2.core::fmt::ArgumentV1"*, i32 }* %.sroa_idx9.i to i32*
  store i32 %101, i32* %.sroa_cast10.i, align 8, !noalias !77
  %.sroa_idx11.i = getelementptr inbounds %"2.core::fmt::Arguments"* %1, i32 0, i32 2, i32 1
  store i32 1, i32* %.sroa_idx11.i, align 4, !noalias !77
  call fastcc void @_ZN6old_io5stdio12println_args20h85aa901b400fa60egFgE(%"2.core::fmt::Arguments"* noalias nocapture dereferenceable(24) %1)
  call void @llvm.lifetime.end(i64 24, i8* %96), !noalias !77
  call void @llvm.lifetime.end(i64 8, i8* %98), !noalias !77
  br label %_ZN21webplatform..HtmlNode14glue_drop.159617hfa2ba2af9635e857E.exit

_ZN21webplatform..HtmlNode14glue_drop.159617hfa2ba2af9635e857E.exit: ; preds = %cond.i14, %unwind_ast_136_3.body
  call void @llvm.lifetime.end(i64 12, i8* %18)
  %.idx.i15 = getelementptr %"8.webplatform::Document"* %document, i32 0, i32 0, i32 0, i32 0
  %.idx.val.i16 = load %"5.alloc::rc::RcBox<core::cell::RefCell<collections::vec::Vec<Box<core::ops::FnMut(webplatform::Event)>>>>"** %.idx.i15, align 8, !alias.scope !91
  %105 = icmp eq %"5.alloc::rc::RcBox<core::cell::RefCell<collections::vec::Vec<Box<core::ops::FnMut(webplatform::Event)>>>>"* %.idx.val.i16, null
  br i1 %105, label %_ZN21webplatform..Document14glue_drop.160317hdbcaacc088d68e66E.exit35, label %then-block-1080-.i.i.i17

then-block-1080-.i.i.i17:                         ; preds = %_ZN21webplatform..HtmlNode14glue_drop.159617hfa2ba2af9635e857E.exit
  %106 = getelementptr inbounds %"5.alloc::rc::RcBox<core::cell::RefCell<collections::vec::Vec<Box<core::ops::FnMut(webplatform::Event)>>>>"* %.idx.val.i16, i32 0, i32 1, i32 0, i32 0
  %107 = load i32* %106, align 4, !noalias !91
  %108 = add i32 %107, -1
  store i32 %108, i32* %106, align 4, !noalias !91
  %109 = icmp eq i32 %108, 0
  br i1 %109, label %then-block-1089-.i.i.i24, label %_ZN21webplatform..Document14glue_drop.160317hdbcaacc088d68e66E.exit35

then-block-1089-.i.i.i24:                         ; preds = %then-block-1080-.i.i.i17
  %tmp.sroa.0.0..sroa_idx.i.i.i.i18 = getelementptr inbounds %"5.alloc::rc::RcBox<core::cell::RefCell<collections::vec::Vec<Box<core::ops::FnMut(webplatform::Event)>>>>"* %.idx.val.i16, i32 0, i32 0, i32 0, i32 0, i32 0, i32 0, i32 0
  %tmp.sroa.0.0.copyload.i.i.i.i19 = load { i8*, void (i8*)** }** %tmp.sroa.0.0..sroa_idx.i.i.i.i18, align 4, !noalias !94
  %tmp.sroa.6.0..sroa_idx5.i.i.i.i20 = getelementptr inbounds %"5.alloc::rc::RcBox<core::cell::RefCell<collections::vec::Vec<Box<core::ops::FnMut(webplatform::Event)>>>>"* %.idx.val.i16, i32 0, i32 0, i32 0, i32 0, i32 1
  %tmp.sroa.6.0.copyload.i.i.i.i21 = load i32* %tmp.sroa.6.0..sroa_idx5.i.i.i.i20, align 4, !noalias !94
  %tmp.sroa.7.0..sroa_idx9.i.i.i.i22 = getelementptr inbounds %"5.alloc::rc::RcBox<core::cell::RefCell<collections::vec::Vec<Box<core::ops::FnMut(webplatform::Event)>>>>"* %.idx.val.i16, i32 0, i32 0, i32 0, i32 0, i32 2
  %tmp.sroa.7.0.copyload.i.i.i.i23 = load i32* %tmp.sroa.7.0..sroa_idx9.i.i.i.i22, align 4, !noalias !94
  %110 = icmp eq i32 %tmp.sroa.7.0.copyload.i.i.i.i23, 0
  br i1 %110, label %"_ZN109core..cell..RefCell$LT$collections..vec..Vec$LT$Box$LT$core..ops..FnMut$LP$webplatform..Event$RP$$GT$$GT$$GT$14glue_drop.163717h035331ac4119b971E.exit.i.i.i33", label %then-block-456-.i.i.i.i.i.i.i25

then-block-456-.i.i.i.i.i.i.i25:                  ; preds = %then-block-1089-.i.i.i24
  %111 = getelementptr inbounds { i8*, void (i8*)** }* %tmp.sroa.0.0.copyload.i.i.i.i19, i32 %tmp.sroa.6.0.copyload.i.i.i.i21
  %112 = icmp eq i32 %tmp.sroa.6.0.copyload.i.i.i.i21, 0
  %113 = bitcast { i8*, void (i8*)** }* %tmp.sroa.0.0.copyload.i.i.i.i19 to i8*
  br i1 %112, label %clean_ast_473_.i.i.i.i.i.i.i32, label %"_ZN5slice36Iter$LT$$u27$a$C$$u20$T$GT$.Iterator4next20h5639315273421375925E.exit.lr.ph.i.i.i.i.i.i.i26"

"_ZN5slice36Iter$LT$$u27$a$C$$u20$T$GT$.Iterator4next20h5639315273421375925E.exit.lr.ph.i.i.i.i.i.i.i26": ; preds = %then-block-456-.i.i.i.i.i.i.i25
  %114 = bitcast i64* %4 to i8*
  br label %"_ZN5slice36Iter$LT$$u27$a$C$$u20$T$GT$.Iterator4next20h5639315273421375925E.exit.i.i.i.i.i.i.i29"

"_ZN5slice36Iter$LT$$u27$a$C$$u20$T$GT$.Iterator4next20h5639315273421375925E.exit.i.i.i.i.i.i.i29": ; preds = %"_ZN53Box$LT$core..ops..FnMut$LP$webplatform..Event$RP$$GT$14glue_drop.164617he34af29bc0faed96E.exit.i.i.i.i.i.i.i31", %"_ZN5slice36Iter$LT$$u27$a$C$$u20$T$GT$.Iterator4next20h5639315273421375925E.exit.lr.ph.i.i.i.i.i.i.i26"
  %.idx.val1920.i.i.i.i.i.i.i27 = phi { i8*, void (i8*)** }* [ %tmp.sroa.0.0.copyload.i.i.i.i19, %"_ZN5slice36Iter$LT$$u27$a$C$$u20$T$GT$.Iterator4next20h5639315273421375925E.exit.lr.ph.i.i.i.i.i.i.i26" ], [ %115, %"_ZN53Box$LT$core..ops..FnMut$LP$webplatform..Event$RP$$GT$14glue_drop.164617he34af29bc0faed96E.exit.i.i.i.i.i.i.i31" ]
  %115 = getelementptr inbounds { i8*, void (i8*)** }* %.idx.val1920.i.i.i.i.i.i.i27, i32 1
  call void @llvm.lifetime.start(i64 8, i8* %114), !noalias !97
  %116 = bitcast { i8*, void (i8*)** }* %.idx.val1920.i.i.i.i.i.i.i27 to i64*
  %117 = load i64* %116, align 4, !noalias !100
  store i64 %117, i64* %4, align 8, !noalias !97, !alias.scope !103
  %trunc.i.i.i.i.i.i.i28 = trunc i64 %117 to i32
  %118 = icmp eq i32 %trunc.i.i.i.i.i.i.i28, 0
  br i1 %118, label %"_ZN53Box$LT$core..ops..FnMut$LP$webplatform..Event$RP$$GT$14glue_drop.164617he34af29bc0faed96E.exit.i.i.i.i.i.i.i31", label %cond.i.i.i.i.i.i.i.i30

cond.i.i.i.i.i.i.i.i30:                           ; preds = %"_ZN5slice36Iter$LT$$u27$a$C$$u20$T$GT$.Iterator4next20h5639315273421375925E.exit.i.i.i.i.i.i.i29"
  %119 = lshr i64 %117, 32
  %120 = trunc i64 %119 to i32
  %121 = inttoptr i32 %120 to void (i8*)**
  %122 = load void (i8*)** %121, align 4, !noalias !97
  call void %122(i8* %114), !noalias !97
  br label %"_ZN53Box$LT$core..ops..FnMut$LP$webplatform..Event$RP$$GT$14glue_drop.164617he34af29bc0faed96E.exit.i.i.i.i.i.i.i31"

"_ZN53Box$LT$core..ops..FnMut$LP$webplatform..Event$RP$$GT$14glue_drop.164617he34af29bc0faed96E.exit.i.i.i.i.i.i.i31": ; preds = %cond.i.i.i.i.i.i.i.i30, %"_ZN5slice36Iter$LT$$u27$a$C$$u20$T$GT$.Iterator4next20h5639315273421375925E.exit.i.i.i.i.i.i.i29"
  call void @llvm.lifetime.end(i64 8, i8* %114), !noalias !97
  %123 = icmp eq { i8*, void (i8*)** }* %115, %111
  br i1 %123, label %clean_ast_473_.i.i.i.i.i.i.i32, label %"_ZN5slice36Iter$LT$$u27$a$C$$u20$T$GT$.Iterator4next20h5639315273421375925E.exit.i.i.i.i.i.i.i29"

clean_ast_473_.i.i.i.i.i.i.i32:                   ; preds = %"_ZN53Box$LT$core..ops..FnMut$LP$webplatform..Event$RP$$GT$14glue_drop.164617he34af29bc0faed96E.exit.i.i.i.i.i.i.i31", %then-block-456-.i.i.i.i.i.i.i25
  call void @free(i8* %113) #0, !noalias !97
  br label %"_ZN109core..cell..RefCell$LT$collections..vec..Vec$LT$Box$LT$core..ops..FnMut$LP$webplatform..Event$RP$$GT$$GT$$GT$14glue_drop.163717h035331ac4119b971E.exit.i.i.i33"

"_ZN109core..cell..RefCell$LT$collections..vec..Vec$LT$Box$LT$core..ops..FnMut$LP$webplatform..Event$RP$$GT$$GT$$GT$14glue_drop.163717h035331ac4119b971E.exit.i.i.i33": ; preds = %clean_ast_473_.i.i.i.i.i.i.i32, %then-block-1089-.i.i.i24
  %124 = getelementptr inbounds %"5.alloc::rc::RcBox<core::cell::RefCell<collections::vec::Vec<Box<core::ops::FnMut(webplatform::Event)>>>>"* %.idx.val.i16, i32 0, i32 2, i32 0, i32 0
  %125 = load i32* %124, align 4, !noalias !91
  %126 = add i32 %125, -1
  store i32 %126, i32* %124, align 4, !noalias !91
  %127 = icmp eq i32 %126, 0
  br i1 %127, label %then-block-1105-.i.i.i34, label %_ZN21webplatform..Document14glue_drop.160317hdbcaacc088d68e66E.exit35

then-block-1105-.i.i.i34:                         ; preds = %"_ZN109core..cell..RefCell$LT$collections..vec..Vec$LT$Box$LT$core..ops..FnMut$LP$webplatform..Event$RP$$GT$$GT$$GT$14glue_drop.163717h035331ac4119b971E.exit.i.i.i33"
  %128 = bitcast %"5.alloc::rc::RcBox<core::cell::RefCell<collections::vec::Vec<Box<core::ops::FnMut(webplatform::Event)>>>>"* %.idx.val.i16 to i8*
  call void @free(i8* %128) #0, !noalias !91
  br label %_ZN21webplatform..Document14glue_drop.160317hdbcaacc088d68e66E.exit35

_ZN21webplatform..Document14glue_drop.160317hdbcaacc088d68e66E.exit35: ; preds = %then-block-1105-.i.i.i34, %"_ZN109core..cell..RefCell$LT$collections..vec..Vec$LT$Box$LT$core..ops..FnMut$LP$webplatform..Event$RP$$GT$$GT$$GT$14glue_drop.163717h035331ac4119b971E.exit.i.i.i33", %then-block-1080-.i.i.i17, %_ZN21webplatform..HtmlNode14glue_drop.159617hfa2ba2af9635e857E.exit
  call void @llvm.lifetime.end(i64 4, i8* %6)
  br label %resume

normal-return5:                                   ; preds = %normal-return2
  %129 = load i8* %.sroa.10.4..sroa_idx, align 8, !range !76
  %130 = icmp eq i8 %129, 0
  br i1 %130, label %_ZN21webplatform..HtmlNode14glue_drop.159617hfa2ba2af9635e857E.exit37, label %cond.i36

cond.i36:                                         ; preds = %normal-return5
  %131 = bitcast %"2.core::fmt::Arguments"* %0 to i8*
  call void @llvm.lifetime.start(i64 24, i8* %131), !noalias !104
  %132 = load i64* bitcast ({ %str_slice*, i32 }* @"_ZN27HtmlNode$LT$$u27$a$GT$.Drop4drop15__STATIC_FMTSTR20hc7c976a00d77dd6dKdaE" to i64*), align 8, !noalias !104
  %133 = bitcast [1 x %"2.core::fmt::ArgumentV1"]* %2 to i8*
  call void @llvm.lifetime.start(i64 8, i8* %133), !noalias !104
  %134 = getelementptr inbounds [1 x %"2.core::fmt::ArgumentV1"]* %2, i32 0, i32 0, i32 1
  store i8 (%"2.core::marker::PhantomData<(&'static str, mithril::mithril::core::AttributeValue)>"*, %"2.core::fmt::Formatter"*)* bitcast (i8 (i32*, %"2.core::fmt::Formatter"*)* @_ZN3fmt3num14i32.fmt..Debug3fmt20hb3c827ce2638bf9abvCE to i8 (%"2.core::marker::PhantomData<(&'static str, mithril::mithril::core::AttributeValue)>"*, %"2.core::fmt::Formatter"*)*), i8 (%"2.core::marker::PhantomData<(&'static str, mithril::mithril::core::AttributeValue)>"*, %"2.core::fmt::Formatter"*)** %134, align 4, !noalias !107, !alias.scope !110
  %135 = bitcast [1 x %"2.core::fmt::ArgumentV1"]* %2 to i32**
  store i32* %.sroa.7.4..sroa_idx, i32** %135, align 8, !noalias !107, !alias.scope !110
  %136 = ptrtoint [1 x %"2.core::fmt::ArgumentV1"]* %2 to i32
  %137 = bitcast %"2.core::fmt::Arguments"* %0 to i64*
  store i64 %132, i64* %137, align 8, !noalias !112, !alias.scope !116
  %138 = getelementptr inbounds %"2.core::fmt::Arguments"* %0, i32 0, i32 1
  %139 = bitcast %"2.core::option::Option<&'static [core::fmt::rt::v1::Argument]>"* %138 to i64*
  store i64 0, i64* %139, align 8, !noalias !112, !alias.scope !116
  %.sroa_idx9.i70 = getelementptr inbounds %"2.core::fmt::Arguments"* %0, i32 0, i32 2
  %.sroa_cast10.i71 = bitcast { %"2.core::fmt::ArgumentV1"*, i32 }* %.sroa_idx9.i70 to i32*
  store i32 %136, i32* %.sroa_cast10.i71, align 8, !noalias !104
  %.sroa_idx11.i72 = getelementptr inbounds %"2.core::fmt::Arguments"* %0, i32 0, i32 2, i32 1
  store i32 1, i32* %.sroa_idx11.i72, align 4, !noalias !104
  call fastcc void @_ZN6old_io5stdio12println_args20h85aa901b400fa60egFgE(%"2.core::fmt::Arguments"* noalias nocapture dereferenceable(24) %0)
  call void @llvm.lifetime.end(i64 24, i8* %131), !noalias !104
  call void @llvm.lifetime.end(i64 8, i8* %133), !noalias !104
  br label %_ZN21webplatform..HtmlNode14glue_drop.159617hfa2ba2af9635e857E.exit37

_ZN21webplatform..HtmlNode14glue_drop.159617hfa2ba2af9635e857E.exit37: ; preds = %cond.i36, %normal-return5
  call void @llvm.lifetime.end(i64 12, i8* %18)
  %.idx.i38 = getelementptr %"8.webplatform::Document"* %document, i32 0, i32 0, i32 0, i32 0
  %.idx.val.i39 = load %"5.alloc::rc::RcBox<core::cell::RefCell<collections::vec::Vec<Box<core::ops::FnMut(webplatform::Event)>>>>"** %.idx.i38, align 8, !alias.scope !118
  %140 = icmp eq %"5.alloc::rc::RcBox<core::cell::RefCell<collections::vec::Vec<Box<core::ops::FnMut(webplatform::Event)>>>>"* %.idx.val.i39, null
  br i1 %140, label %_ZN21webplatform..Document14glue_drop.160317hdbcaacc088d68e66E.exit58, label %then-block-1080-.i.i.i40

then-block-1080-.i.i.i40:                         ; preds = %_ZN21webplatform..HtmlNode14glue_drop.159617hfa2ba2af9635e857E.exit37
  %141 = getelementptr inbounds %"5.alloc::rc::RcBox<core::cell::RefCell<collections::vec::Vec<Box<core::ops::FnMut(webplatform::Event)>>>>"* %.idx.val.i39, i32 0, i32 1, i32 0, i32 0
  %142 = load i32* %141, align 4, !noalias !118
  %143 = add i32 %142, -1
  store i32 %143, i32* %141, align 4, !noalias !118
  %144 = icmp eq i32 %143, 0
  br i1 %144, label %then-block-1089-.i.i.i47, label %_ZN21webplatform..Document14glue_drop.160317hdbcaacc088d68e66E.exit58

then-block-1089-.i.i.i47:                         ; preds = %then-block-1080-.i.i.i40
  %tmp.sroa.0.0..sroa_idx.i.i.i.i41 = getelementptr inbounds %"5.alloc::rc::RcBox<core::cell::RefCell<collections::vec::Vec<Box<core::ops::FnMut(webplatform::Event)>>>>"* %.idx.val.i39, i32 0, i32 0, i32 0, i32 0, i32 0, i32 0, i32 0
  %tmp.sroa.0.0.copyload.i.i.i.i42 = load { i8*, void (i8*)** }** %tmp.sroa.0.0..sroa_idx.i.i.i.i41, align 4, !noalias !121
  %tmp.sroa.6.0..sroa_idx5.i.i.i.i43 = getelementptr inbounds %"5.alloc::rc::RcBox<core::cell::RefCell<collections::vec::Vec<Box<core::ops::FnMut(webplatform::Event)>>>>"* %.idx.val.i39, i32 0, i32 0, i32 0, i32 0, i32 1
  %tmp.sroa.6.0.copyload.i.i.i.i44 = load i32* %tmp.sroa.6.0..sroa_idx5.i.i.i.i43, align 4, !noalias !121
  %tmp.sroa.7.0..sroa_idx9.i.i.i.i45 = getelementptr inbounds %"5.alloc::rc::RcBox<core::cell::RefCell<collections::vec::Vec<Box<core::ops::FnMut(webplatform::Event)>>>>"* %.idx.val.i39, i32 0, i32 0, i32 0, i32 0, i32 2
  %tmp.sroa.7.0.copyload.i.i.i.i46 = load i32* %tmp.sroa.7.0..sroa_idx9.i.i.i.i45, align 4, !noalias !121
  %145 = icmp eq i32 %tmp.sroa.7.0.copyload.i.i.i.i46, 0
  br i1 %145, label %"_ZN109core..cell..RefCell$LT$collections..vec..Vec$LT$Box$LT$core..ops..FnMut$LP$webplatform..Event$RP$$GT$$GT$$GT$14glue_drop.163717h035331ac4119b971E.exit.i.i.i56", label %then-block-456-.i.i.i.i.i.i.i48

then-block-456-.i.i.i.i.i.i.i48:                  ; preds = %then-block-1089-.i.i.i47
  %146 = getelementptr inbounds { i8*, void (i8*)** }* %tmp.sroa.0.0.copyload.i.i.i.i42, i32 %tmp.sroa.6.0.copyload.i.i.i.i44
  %147 = icmp eq i32 %tmp.sroa.6.0.copyload.i.i.i.i44, 0
  %148 = bitcast { i8*, void (i8*)** }* %tmp.sroa.0.0.copyload.i.i.i.i42 to i8*
  br i1 %147, label %clean_ast_473_.i.i.i.i.i.i.i55, label %"_ZN5slice36Iter$LT$$u27$a$C$$u20$T$GT$.Iterator4next20h5639315273421375925E.exit.lr.ph.i.i.i.i.i.i.i49"

"_ZN5slice36Iter$LT$$u27$a$C$$u20$T$GT$.Iterator4next20h5639315273421375925E.exit.lr.ph.i.i.i.i.i.i.i49": ; preds = %then-block-456-.i.i.i.i.i.i.i48
  %149 = bitcast i64* %3 to i8*
  br label %"_ZN5slice36Iter$LT$$u27$a$C$$u20$T$GT$.Iterator4next20h5639315273421375925E.exit.i.i.i.i.i.i.i52"

"_ZN5slice36Iter$LT$$u27$a$C$$u20$T$GT$.Iterator4next20h5639315273421375925E.exit.i.i.i.i.i.i.i52": ; preds = %"_ZN53Box$LT$core..ops..FnMut$LP$webplatform..Event$RP$$GT$14glue_drop.164617he34af29bc0faed96E.exit.i.i.i.i.i.i.i54", %"_ZN5slice36Iter$LT$$u27$a$C$$u20$T$GT$.Iterator4next20h5639315273421375925E.exit.lr.ph.i.i.i.i.i.i.i49"
  %.idx.val1920.i.i.i.i.i.i.i50 = phi { i8*, void (i8*)** }* [ %tmp.sroa.0.0.copyload.i.i.i.i42, %"_ZN5slice36Iter$LT$$u27$a$C$$u20$T$GT$.Iterator4next20h5639315273421375925E.exit.lr.ph.i.i.i.i.i.i.i49" ], [ %150, %"_ZN53Box$LT$core..ops..FnMut$LP$webplatform..Event$RP$$GT$14glue_drop.164617he34af29bc0faed96E.exit.i.i.i.i.i.i.i54" ]
  %150 = getelementptr inbounds { i8*, void (i8*)** }* %.idx.val1920.i.i.i.i.i.i.i50, i32 1
  call void @llvm.lifetime.start(i64 8, i8* %149), !noalias !124
  %151 = bitcast { i8*, void (i8*)** }* %.idx.val1920.i.i.i.i.i.i.i50 to i64*
  %152 = load i64* %151, align 4, !noalias !127
  store i64 %152, i64* %3, align 8, !noalias !124, !alias.scope !130
  %trunc.i.i.i.i.i.i.i51 = trunc i64 %152 to i32
  %153 = icmp eq i32 %trunc.i.i.i.i.i.i.i51, 0
  br i1 %153, label %"_ZN53Box$LT$core..ops..FnMut$LP$webplatform..Event$RP$$GT$14glue_drop.164617he34af29bc0faed96E.exit.i.i.i.i.i.i.i54", label %cond.i.i.i.i.i.i.i.i53

cond.i.i.i.i.i.i.i.i53:                           ; preds = %"_ZN5slice36Iter$LT$$u27$a$C$$u20$T$GT$.Iterator4next20h5639315273421375925E.exit.i.i.i.i.i.i.i52"
  %154 = lshr i64 %152, 32
  %155 = trunc i64 %154 to i32
  %156 = inttoptr i32 %155 to void (i8*)**
  %157 = load void (i8*)** %156, align 4, !noalias !124
  call void %157(i8* %149), !noalias !124
  br label %"_ZN53Box$LT$core..ops..FnMut$LP$webplatform..Event$RP$$GT$14glue_drop.164617he34af29bc0faed96E.exit.i.i.i.i.i.i.i54"

"_ZN53Box$LT$core..ops..FnMut$LP$webplatform..Event$RP$$GT$14glue_drop.164617he34af29bc0faed96E.exit.i.i.i.i.i.i.i54": ; preds = %cond.i.i.i.i.i.i.i.i53, %"_ZN5slice36Iter$LT$$u27$a$C$$u20$T$GT$.Iterator4next20h5639315273421375925E.exit.i.i.i.i.i.i.i52"
  call void @llvm.lifetime.end(i64 8, i8* %149), !noalias !124
  %158 = icmp eq { i8*, void (i8*)** }* %150, %146
  br i1 %158, label %clean_ast_473_.i.i.i.i.i.i.i55, label %"_ZN5slice36Iter$LT$$u27$a$C$$u20$T$GT$.Iterator4next20h5639315273421375925E.exit.i.i.i.i.i.i.i52"

clean_ast_473_.i.i.i.i.i.i.i55:                   ; preds = %"_ZN53Box$LT$core..ops..FnMut$LP$webplatform..Event$RP$$GT$14glue_drop.164617he34af29bc0faed96E.exit.i.i.i.i.i.i.i54", %then-block-456-.i.i.i.i.i.i.i48
  call void @free(i8* %148) #0, !noalias !124
  br label %"_ZN109core..cell..RefCell$LT$collections..vec..Vec$LT$Box$LT$core..ops..FnMut$LP$webplatform..Event$RP$$GT$$GT$$GT$14glue_drop.163717h035331ac4119b971E.exit.i.i.i56"

"_ZN109core..cell..RefCell$LT$collections..vec..Vec$LT$Box$LT$core..ops..FnMut$LP$webplatform..Event$RP$$GT$$GT$$GT$14glue_drop.163717h035331ac4119b971E.exit.i.i.i56": ; preds = %clean_ast_473_.i.i.i.i.i.i.i55, %then-block-1089-.i.i.i47
  %159 = getelementptr inbounds %"5.alloc::rc::RcBox<core::cell::RefCell<collections::vec::Vec<Box<core::ops::FnMut(webplatform::Event)>>>>"* %.idx.val.i39, i32 0, i32 2, i32 0, i32 0
  %160 = load i32* %159, align 4, !noalias !118
  %161 = add i32 %160, -1
  store i32 %161, i32* %159, align 4, !noalias !118
  %162 = icmp eq i32 %161, 0
  br i1 %162, label %then-block-1105-.i.i.i57, label %_ZN21webplatform..Document14glue_drop.160317hdbcaacc088d68e66E.exit58

then-block-1105-.i.i.i57:                         ; preds = %"_ZN109core..cell..RefCell$LT$collections..vec..Vec$LT$Box$LT$core..ops..FnMut$LP$webplatform..Event$RP$$GT$$GT$$GT$14glue_drop.163717h035331ac4119b971E.exit.i.i.i56"
  %163 = bitcast %"5.alloc::rc::RcBox<core::cell::RefCell<collections::vec::Vec<Box<core::ops::FnMut(webplatform::Event)>>>>"* %.idx.val.i39 to i8*
  call void @free(i8* %163) #0, !noalias !118
  br label %_ZN21webplatform..Document14glue_drop.160317hdbcaacc088d68e66E.exit58

_ZN21webplatform..Document14glue_drop.160317hdbcaacc088d68e66E.exit58: ; preds = %then-block-1105-.i.i.i57, %"_ZN109core..cell..RefCell$LT$collections..vec..Vec$LT$Box$LT$core..ops..FnMut$LP$webplatform..Event$RP$$GT$$GT$$GT$14glue_drop.163717h035331ac4119b971E.exit.i.i.i56", %then-block-1080-.i.i.i40, %_ZN21webplatform..HtmlNode14glue_drop.159617hfa2ba2af9635e857E.exit37
  call void @llvm.lifetime.end(i64 4, i8* %6)
  ret void
}

define i32 @main(i32, i8**) unnamed_addr {
top:
  %2 = alloca %"2.core::fmt::Arguments", align 8
  %3 = alloca [1 x %"2.core::fmt::ArgumentV1"], align 8
  %4 = alloca %"2.core::fmt::Arguments", align 8
  %5 = alloca [1 x %"2.core::fmt::ArgumentV1"], align 8
  %arg.i.i.i.i.i.i.i = alloca i64, align 8
  %iterator.i.i.i.i.i.i = alloca %"1.core::iter::Map<core::ops::Range<isize>, [closure((isize,)) -> collections::vec::Vec<u8>]>", align 8
  %6 = alloca %"1.std::ffi::c_str::CString", align 8
  %7 = alloca %"1.core::iter::Map<core::ops::Range<isize>, [closure((isize,)) -> collections::vec::Vec<u8>]>", align 8
  %8 = alloca %"1.std::ffi::c_str::CString", align 8
  %argv1.i.i.i.i = alloca i8**, align 4
  %const.i.i = alloca i64, align 8
  %value.i.i1.i.i = alloca %"1.core::cell::RefCell<core::option::Option<sys_common::thread_info::ThreadInfo>>", align 8
  %value.i.i.i.i = alloca %"1.core::cell::RefCell<core::option::Option<sys_common::thread_info::ThreadInfo>>", align 8
  %const.i.i.i.i = alloca i64, align 8
  %addr_of.i.i.i = alloca %"2.core::nonzero::NonZero<*const std::ffi::c_str::CString>", align 8
  %__fat_ptr1.i.i.i = alloca { i8*, void (i8*)** }, align 8
  %arg.i.i.i = alloca %"2.core::fmt::Arguments", align 8
  %buf.i.i = alloca %"1.std::ffi::c_str::CString", align 8
  %9 = alloca [1 x %"2.core::fmt::ArgumentV1"], align 8
  %10 = alloca %"1.core::option::Option<collections::vec::Vec<collections::vec::Vec<u8>>>", align 8
  %something_around_the_top_of_the_stack.i = alloca i32, align 4
  %arg.i = alloca i64, align 8
  %res.i = alloca i64, align 8
  %tmpcast.i = bitcast i64* %res.i to %"thunk::Thunk<(), ()>"*
  %11 = bitcast i32* %something_around_the_top_of_the_stack.i to i8*
  call void @llvm.lifetime.start(i64 4, i8* %11)
  store i32 1, i32* %something_around_the_top_of_the_stack.i, align 4
  %12 = ptrtoint i32* %something_around_the_top_of_the_stack.i to i32
  %13 = icmp ugt i32* %something_around_the_top_of_the_stack.i, inttoptr (i32 -20001 to i32*)
  %14 = add i32 %12, 20000
  %top_plus_spill.0.i = select i1 %13, i32 -1, i32 %14
  %15 = icmp ult i32 %top_plus_spill.0.i, 2097152
  %16 = add i32 %top_plus_spill.0.i, -2097152
  %17 = bitcast i64* %arg.i to i8*
  call void @llvm.lifetime.start(i64 8, i8* %17)
  %18 = load i64* bitcast (%str_slice* @const127532 to i64*), align 8
  store i64 %18, i64* %arg.i, align 8
  %19 = bitcast %"1.std::ffi::c_str::CString"* %buf.i.i to i8*
  call void @llvm.lifetime.start(i64 12, i8* %19), !noalias !131
  %20 = bitcast %"1.std::ffi::c_str::CString"* %buf.i.i to i32*
  store i32 1, i32* %20, align 8, !noalias !131, !alias.scope !135
  %21 = getelementptr inbounds %"1.std::ffi::c_str::CString"* %buf.i.i, i32 0, i32 0, i32 1
  store i32 0, i32* %21, align 4, !noalias !131, !alias.scope !135
  %22 = getelementptr inbounds %"1.std::ffi::c_str::CString"* %buf.i.i, i32 0, i32 0, i32 2
  store i32 0, i32* %22, align 8, !noalias !131, !alias.scope !135
  %23 = load i64* bitcast ({ %str_slice*, i32 }* @_ZN6string10T.ToString9to_string15__STATIC_FMTSTR20h45fd819a406020c8ONhE to i64*), align 8, !noalias !131
  %24 = bitcast [1 x %"2.core::fmt::ArgumentV1"]* %9 to i8*
  call void @llvm.lifetime.start(i64 8, i8* %24), !noalias !131
  %25 = getelementptr inbounds [1 x %"2.core::fmt::ArgumentV1"]* %9, i32 0, i32 0, i32 1
  %26 = bitcast i8 (%"2.core::marker::PhantomData<(&'static str, mithril::mithril::core::AttributeValue)>"*, %"2.core::fmt::Formatter"*)** %25 to i8 (%str_slice*, %"2.core::fmt::Formatter"*)**
  store i8 (%str_slice*, %"2.core::fmt::Formatter"*)* @"_ZN3fmt25_$RF$$u27$a$u20$T.Display3fmt20h3769726822176594404E", i8 (%str_slice*, %"2.core::fmt::Formatter"*)** %26, align 4, !noalias !142, !alias.scope !145
  %27 = bitcast [1 x %"2.core::fmt::ArgumentV1"]* %9 to i64**
  store i64* %arg.i, i64** %27, align 8, !noalias !142, !alias.scope !145
  %28 = ptrtoint [1 x %"2.core::fmt::ArgumentV1"]* %9 to i32
  %29 = ptrtoint %"1.std::ffi::c_str::CString"* %buf.i.i to i32
  %30 = bitcast %"2.core::nonzero::NonZero<*const std::ffi::c_str::CString>"* %addr_of.i.i.i to i8*
  call void @llvm.lifetime.start(i64 4, i8* %30), !noalias !147
  %31 = bitcast %"2.core::nonzero::NonZero<*const std::ffi::c_str::CString>"* %addr_of.i.i.i to i32*
  store i32 %29, i32* %31, align 8, !noalias !147
  %32 = bitcast { i8*, void (i8*)** }* %__fat_ptr1.i.i.i to i8*
  call void @llvm.lifetime.start(i64 8, i8* %32), !noalias !147
  %33 = bitcast { i8*, void (i8*)** }* %__fat_ptr1.i.i.i to %"2.core::nonzero::NonZero<*const std::ffi::c_str::CString>"**
  store %"2.core::nonzero::NonZero<*const std::ffi::c_str::CString>"* %addr_of.i.i.i, %"2.core::nonzero::NonZero<*const std::ffi::c_str::CString>"** %33, align 8, !noalias !147
  %__fat_ptr.sroa.2.0..sroa_idx2.i.i.i = getelementptr inbounds { i8*, void (i8*)** }* %__fat_ptr1.i.i.i, i32 0, i32 1
  store void (i8*)** getelementptr inbounds ({ void (i8*)*, i32, i32, i8 (%"2.core::nonzero::NonZero<*const std::ffi::c_str::CString>"*, %str_slice*)*, i8 (%"2.core::nonzero::NonZero<*const std::ffi::c_str::CString>"*, %"2.core::fmt::Arguments"*)* }* @vtable112200106, i32 0, i32 0), void (i8*)*** %__fat_ptr.sroa.2.0..sroa_idx2.i.i.i, align 4, !noalias !147
  %34 = bitcast %"2.core::fmt::Arguments"* %arg.i.i.i to i8*
  call void @llvm.lifetime.start(i64 24, i8* %34), !noalias !147
  %.sroa.0.0..sroa_cast29.i.i = bitcast %"2.core::fmt::Arguments"* %arg.i.i.i to i64*
  store i64 %23, i64* %.sroa.0.0..sroa_cast29.i.i, align 8, !noalias !131
  %.sroa.5.0..sroa_idx32.i.i = getelementptr inbounds %"2.core::fmt::Arguments"* %arg.i.i.i, i32 0, i32 1
  %.sroa.5.0..sroa_cast33.i.i = bitcast %"2.core::option::Option<&'static [core::fmt::rt::v1::Argument]>"* %.sroa.5.0..sroa_idx32.i.i to i64*
  store i64 0, i64* %.sroa.5.0..sroa_cast33.i.i, align 8, !noalias !131
  %.sroa.6.0..sroa_idx36.i.i = getelementptr inbounds %"2.core::fmt::Arguments"* %arg.i.i.i, i32 0, i32 2
  %.sroa.6.0..sroa_cast37.i.i = bitcast { %"2.core::fmt::ArgumentV1"*, i32 }* %.sroa.6.0..sroa_idx36.i.i to i32*
  store i32 %28, i32* %.sroa.6.0..sroa_cast37.i.i, align 8, !noalias !131
  %.sroa.7.0..sroa_idx40.i.i = getelementptr inbounds %"2.core::fmt::Arguments"* %arg.i.i.i, i32 0, i32 2, i32 1
  store i32 1, i32* %.sroa.7.0..sroa_idx40.i.i, align 4, !noalias !131
  %35 = invoke fastcc i8 @_ZN3fmt5write20h353034a063cd0b66NtDE({ i8*, void (i8*)** }* noalias nocapture dereferenceable(8) %__fat_ptr1.i.i.i, %"2.core::fmt::Arguments"* noalias nocapture dereferenceable(24) %arg.i.i.i)
          to label %normal-return3.i.i unwind label %unwind_ast_135753_.i.i, !noalias !151

unwind_ast_135753_.i.i:                           ; preds = %top
  %36 = landingpad { i8*, i32 } personality void ()* @rust_eh_personality
          cleanup
  %37 = load i32* %22, align 8, !noalias !131, !alias.scope !152
  %38 = icmp eq i32 %37, 0
  br i1 %38, label %_ZN27collections..string..String15glue_drop.3999117ha9092b67f1eed1f9E.exit18.i.i, label %then-block-132942-.i.i.i17.i.i

then-block-132942-.i.i.i17.i.i:                   ; preds = %unwind_ast_135753_.i.i
  %.idx.i.i.i15.i.i = getelementptr %"1.std::ffi::c_str::CString"* %buf.i.i, i32 0, i32 0, i32 0, i32 0, i32 0
  %.idx.val.i.i.i16.i.i = load i8** %.idx.i.i.i15.i.i, align 8, !noalias !131, !alias.scope !152
  call void @free(i8* %.idx.val.i.i.i16.i.i) #0, !noalias !155
  br label %_ZN27collections..string..String15glue_drop.3999117ha9092b67f1eed1f9E.exit18.i.i

_ZN27collections..string..String15glue_drop.3999117ha9092b67f1eed1f9E.exit18.i.i: ; preds = %then-block-132942-.i.i.i17.i.i, %unwind_ast_135753_.i.i
  call void @llvm.lifetime.end(i64 12, i8* %19), !noalias !131
  call void @llvm.lifetime.end(i64 8, i8* %17), !noalias !151, !alias.scope !156
  resume { i8*, i32 } %36

normal-return3.i.i:                               ; preds = %top
  call void @llvm.lifetime.end(i64 24, i8* %34), !noalias !147
  call void @llvm.lifetime.end(i64 8, i8* %32), !noalias !147
  call void @llvm.lifetime.end(i64 4, i8* %30), !noalias !147
  call void @llvm.lifetime.end(i64 8, i8* %24), !noalias !131
  %39 = load i32* %21, align 4, !noalias !151, !alias.scope !157
  %40 = icmp eq i32 %39, 0
  %41 = load i32* %22, align 8, !noalias !151, !alias.scope !157
  br i1 %40, label %then-block-135974-.i.i.i, label %else-block.i.i.i

then-block-135974-.i.i.i:                         ; preds = %normal-return3.i.i
  %42 = icmp eq i32 %41, 0
  br i1 %42, label %_ZN6string10T.ToString9to_string21h18045919475486484234E.exitthread-pre-split.i, label %then-block-135980-.i.i.i

then-block-135980-.i.i.i:                         ; preds = %then-block-135974-.i.i.i
  %43 = getelementptr inbounds %"1.std::ffi::c_str::CString"* %buf.i.i, i32 0, i32 0, i32 0, i32 0, i32 0
  %44 = load i8** %43, align 8, !noalias !151, !alias.scope !157
  call void @free(i8* %44) #0, !noalias !162
  store i32 0, i32* %22, align 8, !noalias !151, !alias.scope !157
  br label %_ZN6string10T.ToString9to_string21h18045919475486484234E.exit.i

else-block.i.i.i:                                 ; preds = %normal-return3.i.i
  %45 = icmp eq i32 %41, %39
  br i1 %45, label %_ZN6string10T.ToString9to_string21h18045919475486484234E.exitthread-pre-split.i, label %then-block-136002-.i.i.i

then-block-136002-.i.i.i:                         ; preds = %else-block.i.i.i
  %46 = getelementptr inbounds %"1.std::ffi::c_str::CString"* %buf.i.i, i32 0, i32 0, i32 0, i32 0, i32 0
  %47 = load i8** %46, align 8, !noalias !151, !alias.scope !157
  %48 = call i8* @realloc(i8* %47, i32 %39), !noalias !162
  %49 = icmp eq i8* %48, null
  br i1 %49, label %then-block-136039-.i.i.i, label %next-block3.i.i.i

then-block-136039-.i.i.i:                         ; preds = %then-block-136002-.i.i.i
  call fastcc void @_ZN3oom20h02f01d343467389cTUaE()
  unreachable

next-block3.i.i.i:                                ; preds = %then-block-136002-.i.i.i
  %50 = ptrtoint i8* %48 to i32
  store i32 %50, i32* %20, align 8, !noalias !151, !alias.scope !157
  store i32 %39, i32* %22, align 8, !noalias !151, !alias.scope !157
  br label %_ZN6string10T.ToString9to_string21h18045919475486484234E.exit.i

_ZN6string10T.ToString9to_string21h18045919475486484234E.exitthread-pre-split.i: ; preds = %else-block.i.i.i, %then-block-135974-.i.i.i
  %.sroa.041.0..sroa_idx.pre.i = getelementptr inbounds %"1.std::ffi::c_str::CString"* %buf.i.i, i32 0, i32 0, i32 0, i32 0, i32 0
  br label %_ZN6string10T.ToString9to_string21h18045919475486484234E.exit.i

_ZN6string10T.ToString9to_string21h18045919475486484234E.exit.i: ; preds = %_ZN6string10T.ToString9to_string21h18045919475486484234E.exitthread-pre-split.i, %next-block3.i.i.i, %then-block-135980-.i.i.i
  %.sroa.041.0..sroa_idx.pre-phi.i = phi i8** [ %.sroa.041.0..sroa_idx.pre.i, %_ZN6string10T.ToString9to_string21h18045919475486484234E.exitthread-pre-split.i ], [ %46, %next-block3.i.i.i ], [ %43, %then-block-135980-.i.i.i ]
  %.sroa.548.0.copyload.i = phi i32 [ %41, %_ZN6string10T.ToString9to_string21h18045919475486484234E.exitthread-pre-split.i ], [ %39, %next-block3.i.i.i ], [ 0, %then-block-135980-.i.i.i ]
  %.sroa.041.0.copyload.i = load i8** %.sroa.041.0..sroa_idx.pre-phi.i, align 8
  call void @llvm.lifetime.end(i64 12, i8* %19), !noalias !131
  call void @llvm.lifetime.end(i64 8, i8* %17), !noalias !151, !alias.scope !156
  call void @llvm.lifetime.end(i64 8, i8* %17)
  %51 = icmp eq i8* %.sroa.041.0.copyload.i, null
  %52 = icmp eq i32 %.sroa.548.0.copyload.i, 0
  %or.cond.i = or i1 %52, %51
  br i1 %or.cond.i, label %_ZN12thread_dummy29Thread.thread_info..NewThread3new20h0e3705f6f14096depObE.exit.i, label %then-block-132942-.i.i.i.i.i.i

then-block-132942-.i.i.i.i.i.i:                   ; preds = %_ZN6string10T.ToString9to_string21h18045919475486484234E.exit.i
  call void @free(i8* %.sroa.041.0.copyload.i) #0, !noalias !163
  br label %_ZN12thread_dummy29Thread.thread_info..NewThread3new20h0e3705f6f14096depObE.exit.i

_ZN12thread_dummy29Thread.thread_info..NewThread3new20h0e3705f6f14096depObE.exit.i: ; preds = %then-block-132942-.i.i.i.i.i.i, %_ZN6string10T.ToString9to_string21h18045919475486484234E.exit.i
  %53 = load i32* getelementptr inbounds ({ { { i32, [20 x i8] } }, void (%"1.core::cell::RefCell<core::option::Option<sys_common::thread_info::ThreadInfo>>"*)* }* @_ZN10sys_common11thread_info11THREAD_INFO20h31591e16972932f6FUFE, i32 0, i32 0, i32 0, i32 0), align 16, !range !168, !noalias !169
  %cond.i.i34.i = icmp eq i32 %53, 1
  br i1 %cond.i.i34.i, label %join.i.i.i, label %match_else.i.i.i

match_else.i.i.i:                                 ; preds = %_ZN12thread_dummy29Thread.thread_info..NewThread3new20h0e3705f6f14096depObE.exit.i
  %54 = bitcast %"1.core::cell::RefCell<core::option::Option<sys_common::thread_info::ThreadInfo>>"* %value.i.i.i.i to i8*
  call void @llvm.lifetime.start(i64 20, i8* %54), !noalias !169
  %55 = load void (%"1.core::cell::RefCell<core::option::Option<sys_common::thread_info::ThreadInfo>>"*)** getelementptr inbounds ({ { { i32, [20 x i8] } }, void (%"1.core::cell::RefCell<core::option::Option<sys_common::thread_info::ThreadInfo>>"*)* }* @_ZN10sys_common11thread_info11THREAD_INFO20h31591e16972932f6FUFE, i32 0, i32 1), align 8, !noalias !169
  call void %55(%"1.core::cell::RefCell<core::option::Option<sys_common::thread_info::ThreadInfo>>"* noalias nocapture sret dereferenceable(20) %value.i.i.i.i), !noalias !169
  store i32 1, i32* getelementptr inbounds ({ { { i32, [20 x i8] } }, void (%"1.core::cell::RefCell<core::option::Option<sys_common::thread_info::ThreadInfo>>"*)* }* @_ZN10sys_common11thread_info11THREAD_INFO20h31591e16972932f6FUFE, i32 0, i32 0, i32 0, i32 0), align 16, !noalias !169
  call void @llvm.memcpy.p0i8.p0i8.i32(i8* getelementptr inbounds ({ { { i32, [20 x i8] } }, void (%"1.core::cell::RefCell<core::option::Option<sys_common::thread_info::ThreadInfo>>"*)* }* @_ZN10sys_common11thread_info11THREAD_INFO20h31591e16972932f6FUFE, i32 0, i32 0, i32 0, i32 1, i32 0), i8* %54, i32 20, i32 4, i1 false), !noalias !169
  call void @llvm.lifetime.end(i64 20, i8* %54), !noalias !169
  br label %join.i.i.i

join.i.i.i:                                       ; preds = %match_else.i.i.i, %_ZN12thread_dummy29Thread.thread_info..NewThread3new20h0e3705f6f14096depObE.exit.i
  %56 = bitcast i64* %const.i.i.i.i to i8*
  call void @llvm.lifetime.start(i64 8, i8* %56), !noalias !169
  %tmpcast.i.i.i.i = bitcast i64* %const.i.i.i.i to %str_slice*
  %57 = load i32* bitcast (i8* getelementptr inbounds ({ { { i32, [20 x i8] } }, void (%"1.core::cell::RefCell<core::option::Option<sys_common::thread_info::ThreadInfo>>"*)* }* @_ZN10sys_common11thread_info11THREAD_INFO20h31591e16972932f6FUFE, i32 0, i32 0, i32 0, i32 1, i32 16) to i32*), align 4, !noalias !172
  %cond.i.i = icmp eq i32 %57, -1
  br i1 %cond.i.i, label %match_else.i.i.i.i.i, label %"_ZN86core..cell..Ref$LT$core..option..Option$LT$sys_common..thread_info..ThreadInfo$GT$$GT$15glue_drop.4491317h881c26c8f4c22b2fE.exit.i.i.i.i"

match_else.i.i.i.i.i:                             ; preds = %join.i.i.i
  invoke fastcc void @_ZN9panicking5panic20h35992d0a914d4c10J8sE({ %str_slice, %str_slice, i32 }* noalias readonly dereferenceable(20) @"_ZN4cell16RefCell$LT$T$GT$6borrow14_MSG_FILE_LINE20h4bd88ad8aef500833FsE")
          to label %normal-return3.i.i.i.i.i unwind label %"_ZN49core..option..Option$LT$core..cell..BorrowRef$GT$15glue_drop.4490717hde9c52ce3bb5de14E.exit.i.i.i.i.i", !noalias !175

"_ZN49core..option..Option$LT$core..cell..BorrowRef$GT$15glue_drop.4490717hde9c52ce3bb5de14E.exit.i.i.i.i.i": ; preds = %match_else.i.i.i.i.i
  %58 = landingpad { i8*, i32 } personality void ()* @rust_eh_personality
          cleanup
  resume { i8*, i32 } %58

normal-return3.i.i.i.i.i:                         ; preds = %match_else.i.i.i.i.i
  unreachable

"_ZN86core..cell..Ref$LT$core..option..Option$LT$sys_common..thread_info..ThreadInfo$GT$$GT$15glue_drop.4491317h881c26c8f4c22b2fE.exit.i.i.i.i": ; preds = %join.i.i.i
  %59 = add i32 %57, 1
  store i32 %59, i32* bitcast (i8* getelementptr inbounds ({ { { i32, [20 x i8] } }, void (%"1.core::cell::RefCell<core::option::Option<sys_common::thread_info::ThreadInfo>>"*)* }* @_ZN10sys_common11thread_info11THREAD_INFO20h31591e16972932f6FUFE, i32 0, i32 0, i32 0, i32 1, i32 16) to i32*), align 4, !noalias !172
  %60 = inttoptr i32 ptrtoint (i8* getelementptr inbounds ({ { { i32, [20 x i8] } }, void (%"1.core::cell::RefCell<core::option::Option<sys_common::thread_info::ThreadInfo>>"*)* }* @_ZN10sys_common11thread_info11THREAD_INFO20h31591e16972932f6FUFE, i32 0, i32 0, i32 0, i32 1, i32 16) to i32) to %"2.core::cell::Cell<usize>"*
  %.idx1.val.i.i.i.i = load i32* bitcast (i8* getelementptr inbounds ({ { { i32, [20 x i8] } }, void (%"1.core::cell::RefCell<core::option::Option<sys_common::thread_info::ThreadInfo>>"*)* }* @_ZN10sys_common11thread_info11THREAD_INFO20h31591e16972932f6FUFE, i32 0, i32 0, i32 0, i32 1, i32 0) to i32*), align 4, !noalias !169
  %61 = icmp eq i32 %.idx1.val.i.i.i.i, 1
  %62 = getelementptr inbounds %"2.core::cell::Cell<usize>"* %60, i32 0, i32 0, i32 0
  %63 = load i32* %62, align 4, !noalias !178
  %64 = add i32 %63, -1
  store i32 %64, i32* %62, align 4, !noalias !178
  br i1 %61, label %then-block-122207-.i.i.i.i, label %"_ZN18thread_local_dummy12Key$LT$T$GT$4with20h7561042059846972951E.exit.i.i"

then-block-122207-.i.i.i.i:                       ; preds = %"_ZN86core..cell..Ref$LT$core..option..Option$LT$sys_common..thread_info..ThreadInfo$GT$$GT$15glue_drop.4491317h881c26c8f4c22b2fE.exit.i.i.i.i"
  %65 = load i64* bitcast (%str_slice* @const122212 to i64*), align 8, !noalias !169
  store i64 %65, i64* %const.i.i.i.i, align 8, !noalias !169
  call fastcc void @_ZN2rt12unwind_dummy12begin_unwind20h2844681781772657933E(%str_slice* noalias nocapture dereferenceable(8) %tmpcast.i.i.i.i, { %str_slice, i32 }* noalias readonly dereferenceable(12) @_ZN10sys_common11thread_info3set10_FILE_LINE20h78521bb307daad5doXFE), !noalias !169
  unreachable

"_ZN18thread_local_dummy12Key$LT$T$GT$4with20h7561042059846972951E.exit.i.i": ; preds = %"_ZN86core..cell..Ref$LT$core..option..Option$LT$sys_common..thread_info..ThreadInfo$GT$$GT$15glue_drop.4491317h881c26c8f4c22b2fE.exit.i.i.i.i"
  call void @llvm.lifetime.end(i64 8, i8* %56), !noalias !169
  %.sroa.5.0.insert.ext.i = zext i32 %12 to i64
  %.sroa.5.0.insert.shift.i = shl nuw i64 %.sroa.5.0.insert.ext.i, 32
  %66 = zext i32 %16 to i64
  %.sroa.0.0.insert.ext.i = select i1 %15, i64 0, i64 %66
  %.sroa.0.0.insert.insert.i = or i64 %.sroa.0.0.insert.ext.i, %.sroa.5.0.insert.shift.i
  %67 = load i32* getelementptr inbounds ({ { { i32, [20 x i8] } }, void (%"1.core::cell::RefCell<core::option::Option<sys_common::thread_info::ThreadInfo>>"*)* }* @_ZN10sys_common11thread_info11THREAD_INFO20h31591e16972932f6FUFE, i32 0, i32 0, i32 0, i32 0), align 16, !range !168, !noalias !181
  %cond.i2.i.i = icmp eq i32 %67, 1
  br i1 %cond.i2.i.i, label %join.i5.i.i, label %match_else.i3.i.i

match_else.i3.i.i:                                ; preds = %"_ZN18thread_local_dummy12Key$LT$T$GT$4with20h7561042059846972951E.exit.i.i"
  %68 = bitcast %"1.core::cell::RefCell<core::option::Option<sys_common::thread_info::ThreadInfo>>"* %value.i.i1.i.i to i8*
  call void @llvm.lifetime.start(i64 20, i8* %68), !noalias !181
  %69 = load void (%"1.core::cell::RefCell<core::option::Option<sys_common::thread_info::ThreadInfo>>"*)** getelementptr inbounds ({ { { i32, [20 x i8] } }, void (%"1.core::cell::RefCell<core::option::Option<sys_common::thread_info::ThreadInfo>>"*)* }* @_ZN10sys_common11thread_info11THREAD_INFO20h31591e16972932f6FUFE, i32 0, i32 1), align 8, !noalias !181
  call void %69(%"1.core::cell::RefCell<core::option::Option<sys_common::thread_info::ThreadInfo>>"* noalias nocapture sret dereferenceable(20) %value.i.i1.i.i), !noalias !181
  store i32 1, i32* getelementptr inbounds ({ { { i32, [20 x i8] } }, void (%"1.core::cell::RefCell<core::option::Option<sys_common::thread_info::ThreadInfo>>"*)* }* @_ZN10sys_common11thread_info11THREAD_INFO20h31591e16972932f6FUFE, i32 0, i32 0, i32 0, i32 0), align 16, !noalias !181
  call void @llvm.memcpy.p0i8.p0i8.i32(i8* getelementptr inbounds ({ { { i32, [20 x i8] } }, void (%"1.core::cell::RefCell<core::option::Option<sys_common::thread_info::ThreadInfo>>"*)* }* @_ZN10sys_common11thread_info11THREAD_INFO20h31591e16972932f6FUFE, i32 0, i32 0, i32 0, i32 1, i32 0), i8* %68, i32 20, i32 4, i1 false), !noalias !181
  call void @llvm.lifetime.end(i64 20, i8* %68), !noalias !181
  br label %join.i5.i.i

join.i5.i.i:                                      ; preds = %match_else.i3.i.i, %"_ZN18thread_local_dummy12Key$LT$T$GT$4with20h7561042059846972951E.exit.i.i"
  %70 = load i32* bitcast (i8* getelementptr inbounds ({ { { i32, [20 x i8] } }, void (%"1.core::cell::RefCell<core::option::Option<sys_common::thread_info::ThreadInfo>>"*)* }* @_ZN10sys_common11thread_info11THREAD_INFO20h31591e16972932f6FUFE, i32 0, i32 0, i32 0, i32 1, i32 16) to i32*), align 4, !noalias !184
  %cond.i7.i = icmp eq i32 %70, 0
  br i1 %cond.i7.i, label %_ZN10sys_common11thread_info3set20hbc8c4f076a868f8dOWFE.exit.i, label %match_else.i.i.i6.i.i

match_else.i.i.i6.i.i:                            ; preds = %join.i5.i.i
  invoke fastcc void @_ZN9panicking5panic20h35992d0a914d4c10J8sE({ %str_slice, %str_slice, i32 }* noalias readonly dereferenceable(20) @"_ZN4cell16RefCell$LT$T$GT$10borrow_mut14_MSG_FILE_LINE20h4bd88ad8aef50083nHsE")
          to label %normal-return3.i.i.i9.i.i unwind label %"_ZN52core..option..Option$LT$core..cell..BorrowRefMut$GT$15glue_drop.4198117h7c7395641247b34dE.exit.i.i.i.i.i", !noalias !187

"_ZN52core..option..Option$LT$core..cell..BorrowRefMut$GT$15glue_drop.4198117h7c7395641247b34dE.exit.i.i.i.i.i": ; preds = %match_else.i.i.i6.i.i
  %71 = landingpad { i8*, i32 } personality void ()* @rust_eh_personality
          cleanup
  resume { i8*, i32 } %71

normal-return3.i.i.i9.i.i:                        ; preds = %match_else.i.i.i6.i.i
  unreachable

_ZN10sys_common11thread_info3set20hbc8c4f076a868f8dOWFE.exit.i: ; preds = %join.i5.i.i
  store i32 -1, i32* bitcast (i8* getelementptr inbounds ({ { { i32, [20 x i8] } }, void (%"1.core::cell::RefCell<core::option::Option<sys_common::thread_info::ThreadInfo>>"*)* }* @_ZN10sys_common11thread_info11THREAD_INFO20h31591e16972932f6FUFE, i32 0, i32 0, i32 0, i32 1, i32 16) to i32*), align 4, !noalias !184
  %72 = inttoptr i32 ptrtoint (i8* getelementptr inbounds ({ { { i32, [20 x i8] } }, void (%"1.core::cell::RefCell<core::option::Option<sys_common::thread_info::ThreadInfo>>"*)* }* @_ZN10sys_common11thread_info11THREAD_INFO20h31591e16972932f6FUFE, i32 0, i32 0, i32 0, i32 1, i32 16) to i32) to %"2.core::cell::Cell<usize>"*
  store i32 1, i32* bitcast (i8* getelementptr inbounds ({ { { i32, [20 x i8] } }, void (%"1.core::cell::RefCell<core::option::Option<sys_common::thread_info::ThreadInfo>>"*)* }* @_ZN10sys_common11thread_info11THREAD_INFO20h31591e16972932f6FUFE, i32 0, i32 0, i32 0, i32 1, i32 0) to i32*), align 4, !noalias !192
  store i64 %.sroa.0.0.insert.insert.i, i64* bitcast (i8* getelementptr inbounds ({ { { i32, [20 x i8] } }, void (%"1.core::cell::RefCell<core::option::Option<sys_common::thread_info::ThreadInfo>>"*)* }* @_ZN10sys_common11thread_info11THREAD_INFO20h31591e16972932f6FUFE, i32 0, i32 0, i32 0, i32 1, i32 4) to i64*), align 4, !noalias !192
  store i32 0, i32* bitcast (i8* getelementptr inbounds ({ { { i32, [20 x i8] } }, void (%"1.core::cell::RefCell<core::option::Option<sys_common::thread_info::ThreadInfo>>"*)* }* @_ZN10sys_common11thread_info11THREAD_INFO20h31591e16972932f6FUFE, i32 0, i32 0, i32 0, i32 1, i32 12) to i32*), align 4, !noalias !192
  %73 = getelementptr inbounds %"2.core::cell::Cell<usize>"* %72, i32 0, i32 0, i32 0
  store i32 0, i32* %73, align 4, !noalias !193
  %74 = bitcast i64* %const.i.i to i8*
  call void @llvm.lifetime.start(i64 8, i8* %74)
  %75 = call i32 @signal(i32 13, i32 1)
  %76 = icmp eq i32 %75, -1
  br i1 %76, label %then-block-127562-.i.i, label %_ZN2rt10lang_start14ignore_sigpipe20h4741d0ecb59f6e6fjlHE.exit.i

then-block-127562-.i.i:                           ; preds = %_ZN10sys_common11thread_info3set20hbc8c4f076a868f8dOWFE.exit.i
  %tmpcast.i.i = bitcast i64* %const.i.i to %str_slice*
  %77 = load i64* bitcast (%str_slice* @const127567 to i64*), align 8
  store i64 %77, i64* %const.i.i, align 8
  call fastcc void @_ZN2rt12unwind_dummy12begin_unwind20h2844681781772657933E(%str_slice* noalias nocapture dereferenceable(8) %tmpcast.i.i, { %str_slice, i32 }* noalias readonly dereferenceable(12) @_ZN2rt10lang_start14ignore_sigpipe10_FILE_LINE20h78521bb307daad5dLlHE)
  unreachable

_ZN2rt10lang_start14ignore_sigpipe20h4741d0ecb59f6e6fjlHE.exit.i: ; preds = %_ZN10sys_common11thread_info3set20hbc8c4f076a868f8dOWFE.exit.i
  call void @llvm.lifetime.end(i64 8, i8* %74)
  %78 = bitcast i8*** %argv1.i.i.i.i to i8*
  call void @llvm.lifetime.start(i64 4, i8* %78), !noalias !196
  store i8** %1, i8*** %argv1.i.i.i.i, align 4, !noalias !196
  %79 = ptrtoint i8*** %argv1.i.i.i.i to i32
  %.sroa.5.0.insert.ext.i.i.i.i = zext i32 %0 to i64
  %.sroa.5.0.insert.shift.i.i.i.i = shl nuw i64 %.sroa.5.0.insert.ext.i.i.i.i, 32
  %80 = bitcast %"1.core::iter::Map<core::ops::Range<isize>, [closure((isize,)) -> collections::vec::Vec<u8>]>"* %iterator.i.i.i.i.i.i to i8*
  call void @llvm.lifetime.start(i64 12, i8* %80), !noalias !199
  %.sroa.09.0..sroa_cast11.i.i.i.i = bitcast %"1.core::iter::Map<core::ops::Range<isize>, [closure((isize,)) -> collections::vec::Vec<u8>]>"* %iterator.i.i.i.i.i.i to i64*
  store i64 %.sroa.5.0.insert.shift.i.i.i.i, i64* %.sroa.09.0..sroa_cast11.i.i.i.i, align 8, !noalias !196
  %.sroa.513.0..sroa_idx15.i.i.i.i = getelementptr inbounds %"1.core::iter::Map<core::ops::Range<isize>, [closure((isize,)) -> collections::vec::Vec<u8>]>"* %iterator.i.i.i.i.i.i, i32 0, i32 1
  %.sroa.513.0..sroa_cast16.i.i.i.i = bitcast %closure.535* %.sroa.513.0..sroa_idx15.i.i.i.i to i32*
  store i32 %79, i32* %.sroa.513.0..sroa_cast16.i.i.i.i, align 8, !noalias !196
  %81 = icmp sgt i32 %0, 0
  br i1 %81, label %else-block1.i.i.i.i.i.i.i, label %normal-return3.i.thread.i.i.i.i.i

else-block1.i.i.i.i.i.i.i:                        ; preds = %_ZN2rt10lang_start14ignore_sigpipe20h4741d0ecb59f6e6fjlHE.exit.i
  %82 = mul i32 %0, 12
  %83 = icmp ult i32 %82, %0
  %84 = bitcast i64* %arg.i.i.i.i.i.i.i to i8*
  call void @llvm.lifetime.start(i64 8, i8* %84), !noalias !206
  %85 = load i64* bitcast (%str_slice* @const131707 to i64*), align 8, !noalias !206
  store i64 %85, i64* %arg.i.i.i.i.i.i.i, align 8, !noalias !206
  br i1 %83, label %match_else.i.i.i.i.i.i.i11.i, label %"_ZN6option15Option$LT$T$GT$6expect21h17571601832077297229E.exit.i.i.i.i.i.i.i"

match_else.i.i.i.i.i.i.i11.i:                     ; preds = %else-block1.i.i.i.i.i.i.i
  %86 = bitcast %"2.core::fmt::Arguments"* %4 to i8*
  call void @llvm.lifetime.start(i64 24, i8* %86), !noalias !209
  %87 = load i64* bitcast ({ %str_slice*, i32 }* @"_ZN3fmt18_$u5b$T$u5d$.Debug3fmt15__STATIC_FMTSTR20hca469abe1a9e6e54WQGE" to i64*), align 8, !noalias !209
  %88 = bitcast [1 x %"2.core::fmt::ArgumentV1"]* %5 to i8*
  call void @llvm.lifetime.start(i64 8, i8* %88), !noalias !209
  %89 = getelementptr inbounds [1 x %"2.core::fmt::ArgumentV1"]* %5, i32 0, i32 0, i32 1
  %90 = bitcast i8 (%"2.core::marker::PhantomData<(&'static str, mithril::mithril::core::AttributeValue)>"*, %"2.core::fmt::Formatter"*)** %89 to i8 (%str_slice*, %"2.core::fmt::Formatter"*)**
  store i8 (%str_slice*, %"2.core::fmt::Formatter"*)* @"_ZN3fmt25_$RF$$u27$a$u20$T.Display3fmt20h3769726822176594404E", i8 (%str_slice*, %"2.core::fmt::Formatter"*)** %90, align 4, !noalias !213, !alias.scope !216
  %91 = bitcast [1 x %"2.core::fmt::ArgumentV1"]* %5 to i64**
  store i64* %arg.i.i.i.i.i.i.i, i64** %91, align 8, !noalias !213, !alias.scope !216
  %92 = ptrtoint [1 x %"2.core::fmt::ArgumentV1"]* %5 to i32
  %93 = bitcast %"2.core::fmt::Arguments"* %4 to i64*
  store i64 %87, i64* %93, align 8, !noalias !218, !alias.scope !222
  %94 = getelementptr inbounds %"2.core::fmt::Arguments"* %4, i32 0, i32 1
  %95 = bitcast %"2.core::option::Option<&'static [core::fmt::rt::v1::Argument]>"* %94 to i64*
  store i64 0, i64* %95, align 8, !noalias !218, !alias.scope !222
  %.sroa_idx12.i.i.i.i.i.i.i.i = getelementptr inbounds %"2.core::fmt::Arguments"* %4, i32 0, i32 2
  %.sroa_cast13.i.i.i.i.i.i.i.i = bitcast { %"2.core::fmt::ArgumentV1"*, i32 }* %.sroa_idx12.i.i.i.i.i.i.i.i to i32*
  store i32 %92, i32* %.sroa_cast13.i.i.i.i.i.i.i.i, align 8, !noalias !209
  %.sroa_idx14.i.i.i.i.i.i.i.i = getelementptr inbounds %"2.core::fmt::Arguments"* %4, i32 0, i32 2, i32 1
  store i32 1, i32* %.sroa_idx14.i.i.i.i.i.i.i.i, align 4, !noalias !209
  call fastcc void @_ZN9panicking9panic_fmt20h6042cc2872a8f55fxatE(%"2.core::fmt::Arguments"* noalias nocapture dereferenceable(24) %4, { %str_slice, i32 }* noalias readonly dereferenceable(12) @"_ZN6option15Option$LT$T$GT$6expect10_FILE_LINE20hfb04aea8b8af02e9bKvE"), !noalias !224
  unreachable

"_ZN6option15Option$LT$T$GT$6expect21h17571601832077297229E.exit.i.i.i.i.i.i.i": ; preds = %else-block1.i.i.i.i.i.i.i
  call void @llvm.lifetime.end(i64 8, i8* %84), !noalias !224, !alias.scope !225
  call void @llvm.lifetime.end(i64 8, i8* %84), !noalias !206
  %96 = call i8* @malloc(i32 %82), !noalias !206
  %97 = icmp eq i8* %96, null
  br i1 %97, label %then-block-131723-.i.i.i.i.i.i.i, label %then-block-137263-.i.i.i.preheader.i.i.i.i

then-block-131723-.i.i.i.i.i.i.i:                 ; preds = %"_ZN6option15Option$LT$T$GT$6expect21h17571601832077297229E.exit.i.i.i.i.i.i.i"
  call fastcc void @_ZN3oom20h02f01d343467389cTUaE(), !noalias !206
  unreachable

unwind_ast_137104_.loopexit.i.i.i.i.i.i:          ; preds = %loop_body25.i.i.i.i.i.i
  %lpad.loopexit.i.i.i.i.i.i = landingpad { i8*, i32 } personality void ()* @rust_eh_personality
          cleanup
  br label %unwind_ast_137104_.i.i.i.i.i.i

unwind_ast_137104_.nonloopexit.i.i.i.i.i.i:       ; preds = %then-block-137263-.i.i.i.i.i.i.i
  %lpad.nonloopexit.i.i.i.i.i.i = landingpad { i8*, i32 } personality void ()* @rust_eh_personality
          cleanup
  br label %unwind_ast_137104_.i.i.i.i.i.i

unwind_ast_137104_.i.i.i.i.i.i:                   ; preds = %unwind_ast_137104_.nonloopexit.i.i.i.i.i.i, %unwind_ast_137104_.loopexit.i.i.i.i.i.i
  %vector.sroa.24.0.copyload207.i.i.i.i.i.i = phi i32 [ %vector.sroa.24.0.copyload204.i.i.i.i.i.i, %unwind_ast_137104_.loopexit.i.i.i.i.i.i ], [ %0, %unwind_ast_137104_.nonloopexit.i.i.i.i.i.i ]
  %vector.sroa.13.0.copyload200.i.i.i.i.i.i = phi i32 [ %vector.sroa.13.0.copyload197.i.i.i.i.i.i, %unwind_ast_137104_.loopexit.i.i.i.i.i.i ], [ %vector.sroa.13.0.copyload195.i32.i.i.i.i.i, %unwind_ast_137104_.nonloopexit.i.i.i.i.i.i ]
  %vector.sroa.0.0.192.i.i.i.i.i.i = phi i32 [ %vector.sroa.0.0.189.i.i.i.i.i.i, %unwind_ast_137104_.loopexit.i.i.i.i.i.i ], [ %107, %unwind_ast_137104_.nonloopexit.i.i.i.i.i.i ]
  %lpad.phi.i.i.i.i.i.i = phi { i8*, i32 } [ %lpad.loopexit.i.i.i.i.i.i, %unwind_ast_137104_.loopexit.i.i.i.i.i.i ], [ %lpad.nonloopexit.i.i.i.i.i.i, %unwind_ast_137104_.nonloopexit.i.i.i.i.i.i ]
  %.fca.0.extract.i.i.i.i.i.i = extractvalue { i8*, i32 } %lpad.phi.i.i.i.i.i.i, 0
  %.fca.1.extract.i.i.i.i.i.i = extractvalue { i8*, i32 } %lpad.phi.i.i.i.i.i.i, 1
  br label %clean_ast_137104_.i.i.i.i.i.i

clean_ast_137104_.i.i.i.i.i.i:                    ; preds = %"_ZN59core..option..Option$LT$collections..vec..Vec$LT$u8$GT$$GT$15glue_drop.4039417h40dc57aae4afd541E.exit98.i.i.i.i.i.i", %unwind_ast_137104_.i.i.i.i.i.i
  %vector.sroa.24.0.copyload206.i.i.i.i.i.i = phi i32 [ %vector.sroa.24.0.copyload204.i.i.i.i.i.i, %"_ZN59core..option..Option$LT$collections..vec..Vec$LT$u8$GT$$GT$15glue_drop.4039417h40dc57aae4afd541E.exit98.i.i.i.i.i.i" ], [ %vector.sroa.24.0.copyload207.i.i.i.i.i.i, %unwind_ast_137104_.i.i.i.i.i.i ]
  %vector.sroa.13.0.copyload199.i.i.i.i.i.i = phi i32 [ %vector.sroa.24.0.copyload204.i.i.i.i.i.i, %"_ZN59core..option..Option$LT$collections..vec..Vec$LT$u8$GT$$GT$15glue_drop.4039417h40dc57aae4afd541E.exit98.i.i.i.i.i.i" ], [ %vector.sroa.13.0.copyload200.i.i.i.i.i.i, %unwind_ast_137104_.i.i.i.i.i.i ]
  %vector.sroa.0.0.191.i.i.i.i.i.i = phi i32 [ %vector.sroa.0.0.189.i.i.i.i.i.i, %"_ZN59core..option..Option$LT$collections..vec..Vec$LT$u8$GT$$GT$15glue_drop.4039417h40dc57aae4afd541E.exit98.i.i.i.i.i.i" ], [ %vector.sroa.0.0.192.i.i.i.i.i.i, %unwind_ast_137104_.i.i.i.i.i.i ]
  %.sroa.0.0.i.i.i.i.i.i = phi i8* [ %.fca.0.extract66.i.i.i.i.i.i, %"_ZN59core..option..Option$LT$collections..vec..Vec$LT$u8$GT$$GT$15glue_drop.4039417h40dc57aae4afd541E.exit98.i.i.i.i.i.i" ], [ %.fca.0.extract.i.i.i.i.i.i, %unwind_ast_137104_.i.i.i.i.i.i ]
  %.sroa.5.0.i.i.i.i.i.i = phi i32 [ %.fca.1.extract68.i.i.i.i.i.i, %"_ZN59core..option..Option$LT$collections..vec..Vec$LT$u8$GT$$GT$15glue_drop.4039417h40dc57aae4afd541E.exit98.i.i.i.i.i.i" ], [ %.fca.1.extract.i.i.i.i.i.i, %unwind_ast_137104_.i.i.i.i.i.i ]
  %98 = icmp eq i32 %vector.sroa.24.0.copyload206.i.i.i.i.i.i, 0
  br i1 %98, label %"_ZN60collections..vec..Vec$LT$collections..vec..Vec$LT$u8$GT$$GT$15glue_drop.4176217h65286e7e1f060224E.exit95.i.i.i.i.i.i", label %then-block-132942-.i.i85.i.i.i.i.i.i

then-block-132942-.i.i85.i.i.i.i.i.i:             ; preds = %clean_ast_137104_.i.i.i.i.i.i
  %99 = inttoptr i32 %vector.sroa.0.0.191.i.i.i.i.i.i to %"3.collections::vec::Vec<u8>"*
  %100 = getelementptr inbounds %"3.collections::vec::Vec<u8>"* %99, i32 %vector.sroa.13.0.copyload199.i.i.i.i.i.i
  %101 = icmp eq i32 %vector.sroa.13.0.copyload199.i.i.i.i.i.i, 0
  %102 = inttoptr i32 %vector.sroa.0.0.191.i.i.i.i.i.i to i8*
  br i1 %101, label %clean_ast_132959_.i.i94.i.i.i.i.i.i, label %"_ZN5slice36Iter$LT$$u27$a$C$$u20$T$GT$.Iterator4next20h4769895820461771395E.exit.i.i89.i.i.i.i.i.i"

"_ZN5slice36Iter$LT$$u27$a$C$$u20$T$GT$.Iterator4next20h4769895820461771395E.exit.i.i89.i.i.i.i.i.i": ; preds = %loop_body.backedge.i.i90.i.i.i.i.i.i, %then-block-132942-.i.i85.i.i.i.i.i.i
  %.idx.val2425.i.i86.i.i.i.i.i.i = phi %"3.collections::vec::Vec<u8>"* [ %103, %loop_body.backedge.i.i90.i.i.i.i.i.i ], [ %99, %then-block-132942-.i.i85.i.i.i.i.i.i ]
  %103 = getelementptr inbounds %"3.collections::vec::Vec<u8>"* %.idx.val2425.i.i86.i.i.i.i.i.i, i32 1
  %tmp.sroa.69.0..sroa_idx10.i.i.i87.i.i.i.i.i.i = getelementptr inbounds %"3.collections::vec::Vec<u8>"* %.idx.val2425.i.i86.i.i.i.i.i.i, i32 0, i32 2
  %tmp.sroa.69.0.copyload.i.i.i88.i.i.i.i.i.i = load i32* %tmp.sroa.69.0..sroa_idx10.i.i.i87.i.i.i.i.i.i, align 4, !noalias !226
  %104 = icmp eq i32 %tmp.sroa.69.0.copyload.i.i.i88.i.i.i.i.i.i, 0
  br i1 %104, label %loop_body.backedge.i.i90.i.i.i.i.i.i, label %then-block-132942-.i.i.i.i93.i.i.i.i.i.i

loop_body.backedge.i.i90.i.i.i.i.i.i:             ; preds = %then-block-132942-.i.i.i.i93.i.i.i.i.i.i, %"_ZN5slice36Iter$LT$$u27$a$C$$u20$T$GT$.Iterator4next20h4769895820461771395E.exit.i.i89.i.i.i.i.i.i"
  %105 = icmp eq %"3.collections::vec::Vec<u8>"* %103, %100
  br i1 %105, label %clean_ast_132959_.i.i94.i.i.i.i.i.i, label %"_ZN5slice36Iter$LT$$u27$a$C$$u20$T$GT$.Iterator4next20h4769895820461771395E.exit.i.i89.i.i.i.i.i.i"

then-block-132942-.i.i.i.i93.i.i.i.i.i.i:         ; preds = %"_ZN5slice36Iter$LT$$u27$a$C$$u20$T$GT$.Iterator4next20h4769895820461771395E.exit.i.i89.i.i.i.i.i.i"
  %tmp.sroa.0.0..sroa_idx.i.i.i91.i.i.i.i.i.i = getelementptr inbounds %"3.collections::vec::Vec<u8>"* %.idx.val2425.i.i86.i.i.i.i.i.i, i32 0, i32 0, i32 0, i32 0
  %tmp.sroa.0.0.copyload.i.i.i92.i.i.i.i.i.i = load i8** %tmp.sroa.0.0..sroa_idx.i.i.i91.i.i.i.i.i.i, align 4, !noalias !226
  call void @free(i8* %tmp.sroa.0.0.copyload.i.i.i92.i.i.i.i.i.i) #0, !noalias !231
  br label %loop_body.backedge.i.i90.i.i.i.i.i.i

clean_ast_132959_.i.i94.i.i.i.i.i.i:              ; preds = %loop_body.backedge.i.i90.i.i.i.i.i.i, %then-block-132942-.i.i85.i.i.i.i.i.i
  call void @free(i8* %102) #0, !noalias !234
  br label %"_ZN60collections..vec..Vec$LT$collections..vec..Vec$LT$u8$GT$$GT$15glue_drop.4176217h65286e7e1f060224E.exit95.i.i.i.i.i.i"

"_ZN60collections..vec..Vec$LT$collections..vec..Vec$LT$u8$GT$$GT$15glue_drop.4176217h65286e7e1f060224E.exit95.i.i.i.i.i.i": ; preds = %clean_ast_132959_.i.i94.i.i.i.i.i.i, %clean_ast_137104_.i.i.i.i.i.i
  call void @llvm.lifetime.end(i64 12, i8* %80), !noalias !199
  %.fca.0.insert.i.i.i.i.i.i = insertvalue { i8*, i32 } undef, i8* %.sroa.0.0.i.i.i.i.i.i, 0
  %.fca.1.insert.i.i.i.i.i.i = insertvalue { i8*, i32 } %.fca.0.insert.i.i.i.i.i.i, i32 %.sroa.5.0.i.i.i.i.i.i, 1
  resume { i8*, i32 } %.fca.1.insert.i.i.i.i.i.i

normal-return3.i.thread.i.i.i.i.i:                ; preds = %_ZN2rt10lang_start14ignore_sigpipe20h4741d0ecb59f6e6fjlHE.exit.i
  %106 = bitcast %"1.std::ffi::c_str::CString"* %6 to i8*
  call void @llvm.lifetime.start(i64 12, i8* %106), !noalias !199
  br label %normal-return4.thread.i.i.i.i.i.i

then-block-137263-.i.i.i.preheader.i.i.i.i:       ; preds = %"_ZN6option15Option$LT$T$GT$6expect21h17571601832077297229E.exit.i.i.i.i.i.i.i"
  %107 = ptrtoint i8* %96 to i32
  %108 = bitcast %"1.std::ffi::c_str::CString"* %6 to i8*
  %109 = getelementptr inbounds %"1.std::ffi::c_str::CString"* %6, i32 0, i32 0, i32 0, i32 0, i32 0
  %110 = bitcast i8* %96 to %"3.collections::vec::Vec<u8>"*
  call void @llvm.lifetime.start(i64 12, i8* %108), !noalias !199
  br label %then-block-137263-.i.i.i.i.i.i.i

then-block-137263-.i.i.i.i.i.i.i:                 ; preds = %"_ZN59core..option..Option$LT$collections..vec..Vec$LT$u8$GT$$GT$15glue_drop.4039417h40dc57aae4afd541E.exit116.i.i.i.i.i.i", %then-block-137263-.i.i.i.preheader.i.i.i.i
  %.sroa.4.4.load187.i33.i.i.i.i.i = phi i32 [ %112, %"_ZN59core..option..Option$LT$collections..vec..Vec$LT$u8$GT$$GT$15glue_drop.4039417h40dc57aae4afd541E.exit116.i.i.i.i.i.i" ], [ %0, %then-block-137263-.i.i.i.preheader.i.i.i.i ]
  %vector.sroa.13.0.copyload195.i32.i.i.i.i.i = phi i32 [ %116, %"_ZN59core..option..Option$LT$collections..vec..Vec$LT$u8$GT$$GT$15glue_drop.4039417h40dc57aae4afd541E.exit116.i.i.i.i.i.i" ], [ 0, %then-block-137263-.i.i.i.preheader.i.i.i.i ]
  invoke fastcc void @"_ZN4iter30Map$LT$I$C$$u20$F$GT$.Iterator4next20h4432039891100757917E"(%"1.std::ffi::c_str::CString"* noalias nocapture sret dereferenceable(12) %6, %"1.core::iter::Map<core::ops::Range<isize>, [closure((isize,)) -> collections::vec::Vec<u8>]>"* noalias dereferenceable(12) %iterator.i.i.i.i.i.i)
          to label %normal-return4.i.i.i.i.i.i unwind label %unwind_ast_137104_.nonloopexit.i.i.i.i.i.i, !noalias !199

normal-return4.thread.i.i.i.i.i.i:                ; preds = %"_ZN59core..option..Option$LT$collections..vec..Vec$LT$u8$GT$$GT$15glue_drop.4039417h40dc57aae4afd541E.exit116.i.i.i.i.i.i", %normal-return3.i.thread.i.i.i.i.i
  %111 = phi i8* [ %106, %normal-return3.i.thread.i.i.i.i.i ], [ %108, %"_ZN59core..option..Option$LT$collections..vec..Vec$LT$u8$GT$$GT$15glue_drop.4039417h40dc57aae4afd541E.exit116.i.i.i.i.i.i" ]
  %vector.sroa.0.0.190.i62.i.i.i.i.i = phi i32 [ 1, %normal-return3.i.thread.i.i.i.i.i ], [ %107, %"_ZN59core..option..Option$LT$collections..vec..Vec$LT$u8$GT$$GT$15glue_drop.4039417h40dc57aae4afd541E.exit116.i.i.i.i.i.i" ]
  %vector.sroa.24.0.copyload202.i60.i.i.i.i.i = phi i32 [ 0, %normal-return3.i.thread.i.i.i.i.i ], [ %0, %"_ZN59core..option..Option$LT$collections..vec..Vec$LT$u8$GT$$GT$15glue_drop.4039417h40dc57aae4afd541E.exit116.i.i.i.i.i.i" ]
  %vector.sroa.13.0.copyload195.i.lcssa.i.i.i.i.i = phi i32 [ 0, %normal-return3.i.thread.i.i.i.i.i ], [ %116, %"_ZN59core..option..Option$LT$collections..vec..Vec$LT$u8$GT$$GT$15glue_drop.4039417h40dc57aae4afd541E.exit116.i.i.i.i.i.i" ]
  call void @llvm.memset.p0i8.i32(i8* %111, i8 0, i32 12, i32 8, i1 false), !noalias !235, !alias.scope !238
  br label %normal-return18.i.i.i.i.i.i

normal-return4.i.i.i.i.i.i:                       ; preds = %then-block-137263-.i.i.i.i.i.i.i
  %112 = add i32 %.sroa.4.4.load187.i33.i.i.i.i.i, -1
  %.pre.i.i.i.i.i.i = load i8** %109, align 8, !noalias !199
  %113 = icmp eq i8* %.pre.i.i.i.i.i.i, null
  br i1 %113, label %normal-return18.i.i.i.i.i.i, label %"_ZN59core..option..Option$LT$collections..vec..Vec$LT$u8$GT$$GT$15glue_drop.4039417h40dc57aae4afd541E.exit116.i.i.i.i.i.i"

"_ZN59core..option..Option$LT$collections..vec..Vec$LT$u8$GT$$GT$15glue_drop.4039417h40dc57aae4afd541E.exit116.i.i.i.i.i.i": ; preds = %normal-return4.i.i.i.i.i.i
  %114 = getelementptr inbounds %"3.collections::vec::Vec<u8>"* %110, i32 %vector.sroa.13.0.copyload195.i32.i.i.i.i.i
  %115 = bitcast %"3.collections::vec::Vec<u8>"* %114 to i8*
  call void @llvm.memcpy.p0i8.p0i8.i32(i8* %115, i8* %108, i32 12, i32 4, i1 false)
  %116 = add i32 %vector.sroa.13.0.copyload195.i32.i.i.i.i.i, 1
  call void @llvm.lifetime.end(i64 12, i8* %108), !noalias !199
  call void @llvm.lifetime.start(i64 12, i8* %108), !noalias !199
  %117 = icmp eq i32 %112, 0
  br i1 %117, label %normal-return4.thread.i.i.i.i.i.i, label %then-block-137263-.i.i.i.i.i.i.i

normal-return18.i.i.i.i.i.i:                      ; preds = %normal-return4.i.i.i.i.i.i, %normal-return4.thread.i.i.i.i.i.i
  %118 = phi i8* [ %111, %normal-return4.thread.i.i.i.i.i.i ], [ %108, %normal-return4.i.i.i.i.i.i ]
  %vector.sroa.0.0.190.i61.i.i.i.i.i = phi i32 [ %vector.sroa.0.0.190.i62.i.i.i.i.i, %normal-return4.thread.i.i.i.i.i.i ], [ %107, %normal-return4.i.i.i.i.i.i ]
  %vector.sroa.24.0.copyload202.i59.i.i.i.i.i = phi i32 [ %vector.sroa.24.0.copyload202.i60.i.i.i.i.i, %normal-return4.thread.i.i.i.i.i.i ], [ %0, %normal-return4.i.i.i.i.i.i ]
  %vector.sroa.13.0.copyload195.i31.i.i.i.i.i = phi i32 [ %vector.sroa.13.0.copyload195.i.lcssa.i.i.i.i.i, %normal-return4.thread.i.i.i.i.i.i ], [ %vector.sroa.13.0.copyload195.i32.i.i.i.i.i, %normal-return4.i.i.i.i.i.i ]
  call void @llvm.lifetime.end(i64 12, i8* %118), !noalias !199
  %119 = icmp eq i32 %vector.sroa.13.0.copyload195.i31.i.i.i.i.i, %vector.sroa.24.0.copyload202.i59.i.i.i.i.i
  br i1 %119, label %normal-return21.i.i.i.i.i.i, label %_ZN2rt4args3imp18load_argc_and_argv20he98faae1bbace972Q4GE.exit.i.i.i

normal-return21.i.i.i.i.i.i:                      ; preds = %normal-return18.i.i.i.i.i.i
  %120 = bitcast %"1.core::iter::Map<core::ops::Range<isize>, [closure((isize,)) -> collections::vec::Vec<u8>]>"* %7 to i8*
  call void @llvm.lifetime.start(i64 12, i8* %120), !noalias !199
  call void @llvm.memcpy.p0i8.p0i8.i32(i8* %120, i8* %80, i32 12, i32 8, i1 false), !noalias !199
  %121 = bitcast %"1.std::ffi::c_str::CString"* %8 to i8*
  %122 = getelementptr inbounds %"1.std::ffi::c_str::CString"* %8, i32 0, i32 0, i32 0, i32 0, i32 0
  %arg32.sroa.9.0..sroa_idx127.i.i.i.i.i.i = getelementptr inbounds %"1.std::ffi::c_str::CString"* %8, i32 0, i32 0, i32 1
  %arg32.sroa.9133.0..sroa_idx134.i.i.i.i.i.i = getelementptr inbounds %"1.std::ffi::c_str::CString"* %8, i32 0, i32 0, i32 2
  br label %loop_body25.i.i.i.i.i.i

loop_body25.i.i.i.i.i.i:                          ; preds = %"_ZN59core..option..Option$LT$collections..vec..Vec$LT$u8$GT$$GT$15glue_drop.4039417h40dc57aae4afd541E.exit105.i.i.i.i.i.i", %normal-return21.i.i.i.i.i.i
  %vector.sroa.24.0.copyload204.i.i.i.i.i.i = phi i32 [ %vector.sroa.24.0.copyload203.i.i.i.i.i.i, %"_ZN59core..option..Option$LT$collections..vec..Vec$LT$u8$GT$$GT$15glue_drop.4039417h40dc57aae4afd541E.exit105.i.i.i.i.i.i" ], [ %vector.sroa.24.0.copyload202.i59.i.i.i.i.i, %normal-return21.i.i.i.i.i.i ]
  %vector.sroa.13.0.copyload197.i.i.i.i.i.i = phi i32 [ %140, %"_ZN59core..option..Option$LT$collections..vec..Vec$LT$u8$GT$$GT$15glue_drop.4039417h40dc57aae4afd541E.exit105.i.i.i.i.i.i" ], [ %vector.sroa.24.0.copyload202.i59.i.i.i.i.i, %normal-return21.i.i.i.i.i.i ]
  %vector.sroa.0.0.189.i.i.i.i.i.i = phi i32 [ %vector.sroa.0.0.188.i.i.i.i.i.i, %"_ZN59core..option..Option$LT$collections..vec..Vec$LT$u8$GT$$GT$15glue_drop.4039417h40dc57aae4afd541E.exit105.i.i.i.i.i.i" ], [ %vector.sroa.0.0.190.i61.i.i.i.i.i, %normal-return21.i.i.i.i.i.i ]
  call void @llvm.lifetime.start(i64 12, i8* %121), !noalias !199
  invoke fastcc void @"_ZN4iter30Map$LT$I$C$$u20$F$GT$.Iterator4next20h4432039891100757917E"(%"1.std::ffi::c_str::CString"* noalias nocapture sret dereferenceable(12) %8, %"1.core::iter::Map<core::ops::Range<isize>, [closure((isize,)) -> collections::vec::Vec<u8>]>"* noalias dereferenceable(12) %7)
          to label %normal-return26.i.i.i.i.i.i unwind label %unwind_ast_137104_.loopexit.i.i.i.i.i.i, !noalias !199

normal-return26.i.i.i.i.i.i:                      ; preds = %loop_body25.i.i.i.i.i.i
  %123 = load i8** %122, align 8, !noalias !199
  %124 = icmp eq i8* %123, null
  br i1 %124, label %"_ZN59core..option..Option$LT$collections..vec..Vec$LT$u8$GT$$GT$15glue_drop.4039417h40dc57aae4afd541E.exit.i.i.i.i.i.i", label %match_case31.i.i.i.i.i.i

match_case31.i.i.i.i.i.i:                         ; preds = %normal-return26.i.i.i.i.i.i
  %arg32.sroa.9.0.copyload.i.i.i.i.i.i = load i32* %arg32.sroa.9.0..sroa_idx127.i.i.i.i.i.i, align 4, !noalias !199
  %arg32.sroa.9133.0.copyload.i.i.i.i.i.i = load i32* %arg32.sroa.9133.0..sroa_idx134.i.i.i.i.i.i, align 8, !noalias !199
  call void @llvm.memset.p0i8.i32(i8* %121, i8 0, i32 12, i32 8, i1 false), !noalias !199
  %125 = icmp eq i32 %vector.sroa.13.0.copyload197.i.i.i.i.i.i, %vector.sroa.24.0.copyload204.i.i.i.i.i.i
  br i1 %125, label %normal-return7.i.i.i.i.i.i.i, label %next-block.normal-return22_crit_edge.i.i.i.i.i.i.i

next-block.normal-return22_crit_edge.i.i.i.i.i.i.i: ; preds = %match_case31.i.i.i.i.i.i
  %126 = inttoptr i32 %vector.sroa.0.0.189.i.i.i.i.i.i to %"3.collections::vec::Vec<u8>"*
  br label %normal-return33.i.i.i.i.i.i

unwind_custom_.i.nonloopexit.i.i.i.i.i.i:         ; preds = %then-block-133543-.i.i.i.i.i.i.i
  %lpad.nonloopexit215.i.i.i.i.i.i = landingpad { i8*, i32 } personality void ()* @rust_eh_personality
          cleanup
  %127 = icmp eq i32 %arg32.sroa.9133.0.copyload.i.i.i.i.i.i, 0
  br i1 %127, label %"_ZN59core..option..Option$LT$collections..vec..Vec$LT$u8$GT$$GT$15glue_drop.4039417h40dc57aae4afd541E.exit98.i.i.i.i.i.i", label %then-block-132942-.i.i68.i.i.i.i.i.i.i

then-block-132942-.i.i68.i.i.i.i.i.i.i:           ; preds = %unwind_custom_.i.nonloopexit.i.i.i.i.i.i
  call void @free(i8* %123) #0, !noalias !240
  br label %"_ZN59core..option..Option$LT$collections..vec..Vec$LT$u8$GT$$GT$15glue_drop.4039417h40dc57aae4afd541E.exit98.i.i.i.i.i.i"

normal-return7.i.i.i.i.i.i.i:                     ; preds = %match_case31.i.i.i.i.i.i
  %128 = mul i32 %vector.sroa.24.0.copyload204.i.i.i.i.i.i, 12
  %129 = icmp ugt i32 %128, 24
  %.op.i.i.i.i.i.i.i = mul i32 %vector.sroa.24.0.copyload204.i.i.i.i.i.i, 24
  %130 = select i1 %129, i32 %.op.i.i.i.i.i.i.i, i32 48
  %131 = icmp ugt i32 %128, %130
  br i1 %131, label %then-block-133543-.i.i.i.i.i.i.i, label %normal-return10.i.i.i.i.i.i.i

then-block-133543-.i.i.i.i.i.i.i:                 ; preds = %normal-return7.i.i.i.i.i.i.i
  invoke fastcc void @_ZN9panicking5panic20h35992d0a914d4c10J8sE({ %str_slice, %str_slice, i32 }* noalias readonly dereferenceable(20) @"_ZN3vec12Vec$LT$T$GT$4push14_MSG_FILE_LINE20h3a2df9da68cfa76004hE")
          to label %normal-return8.i.i.i.i.i.i.i unwind label %unwind_custom_.i.nonloopexit.i.i.i.i.i.i, !noalias !246

normal-return8.i.i.i.i.i.i.i:                     ; preds = %then-block-133543-.i.i.i.i.i.i.i
  unreachable

normal-return10.i.i.i.i.i.i.i:                    ; preds = %normal-return7.i.i.i.i.i.i.i
  %132 = inttoptr i32 %vector.sroa.0.0.189.i.i.i.i.i.i to %"2.collections::string::FromUtf8Error"*
  %133 = call fastcc %"2.collections::string::FromUtf8Error"* @_ZN3vec16alloc_or_realloc21h13392775992998275704E(%"2.collections::string::FromUtf8Error"* %132, i32 %128, i32 %130)
  %134 = icmp eq %"2.collections::string::FromUtf8Error"* %133, null
  br i1 %134, label %then-block-133581-.i.i.i.i.i.i.i, label %normal-return16.i.i.i.i.i.i.i

then-block-133581-.i.i.i.i.i.i.i:                 ; preds = %normal-return10.i.i.i.i.i.i.i
  call fastcc void @_ZN3oom20h02f01d343467389cTUaE()
  unreachable

normal-return16.i.i.i.i.i.i.i:                    ; preds = %normal-return10.i.i.i.i.i.i.i
  %135 = getelementptr inbounds %"2.collections::string::FromUtf8Error"* %133, i32 0, i32 0
  %136 = ptrtoint %"2.collections::string::FromUtf8Error"* %133 to i32
  %137 = icmp ugt i32 %vector.sroa.24.0.copyload204.i.i.i.i.i.i, 2
  %.op75.i.i.i.i.i.i.i = shl i32 %vector.sroa.24.0.copyload204.i.i.i.i.i.i, 1
  %138 = select i1 %137, i32 %.op75.i.i.i.i.i.i.i, i32 4
  br label %normal-return33.i.i.i.i.i.i

normal-return33.i.i.i.i.i.i:                      ; preds = %normal-return16.i.i.i.i.i.i.i, %next-block.normal-return22_crit_edge.i.i.i.i.i.i.i
  %vector.sroa.24.0.copyload203.i.i.i.i.i.i = phi i32 [ %vector.sroa.24.0.copyload204.i.i.i.i.i.i, %next-block.normal-return22_crit_edge.i.i.i.i.i.i.i ], [ %138, %normal-return16.i.i.i.i.i.i.i ]
  %vector.sroa.0.0.188.i.i.i.i.i.i = phi i32 [ %vector.sroa.0.0.189.i.i.i.i.i.i, %next-block.normal-return22_crit_edge.i.i.i.i.i.i.i ], [ %136, %normal-return16.i.i.i.i.i.i.i ]
  %139 = phi %"3.collections::vec::Vec<u8>"* [ %126, %next-block.normal-return22_crit_edge.i.i.i.i.i.i.i ], [ %135, %normal-return16.i.i.i.i.i.i.i ]
  %arg21.i.sroa.0.0..sroa_idx.i.i.i.i.i.i = getelementptr inbounds %"3.collections::vec::Vec<u8>"* %139, i32 %vector.sroa.13.0.copyload197.i.i.i.i.i.i, i32 0, i32 0, i32 0
  store i8* %123, i8** %arg21.i.sroa.0.0..sroa_idx.i.i.i.i.i.i, align 4, !noalias !199
  %arg21.i.sroa.5.0..sroa_idx180.i.i.i.i.i.i = getelementptr inbounds %"3.collections::vec::Vec<u8>"* %139, i32 %vector.sroa.13.0.copyload197.i.i.i.i.i.i, i32 1
  store i32 %arg32.sroa.9.0.copyload.i.i.i.i.i.i, i32* %arg21.i.sroa.5.0..sroa_idx180.i.i.i.i.i.i, align 4, !noalias !199
  %arg21.i.sroa.6.0..sroa_idx183.i.i.i.i.i.i = getelementptr inbounds %"3.collections::vec::Vec<u8>"* %139, i32 %vector.sroa.13.0.copyload197.i.i.i.i.i.i, i32 2
  store i32 %arg32.sroa.9133.0.copyload.i.i.i.i.i.i, i32* %arg21.i.sroa.6.0..sroa_idx183.i.i.i.i.i.i, align 4, !noalias !199
  %140 = add i32 %vector.sroa.13.0.copyload197.i.i.i.i.i.i, 1
  %141 = load i32* %arg32.sroa.9133.0..sroa_idx134.i.i.i.i.i.i, align 8, !noalias !199, !alias.scope !247
  %142 = icmp eq i32 %141, 0
  br i1 %142, label %"_ZN59core..option..Option$LT$collections..vec..Vec$LT$u8$GT$$GT$15glue_drop.4039417h40dc57aae4afd541E.exit105.i.i.i.i.i.i", label %then-block-132942-.i.i108.i.i.i.i.i.i

then-block-132942-.i.i108.i.i.i.i.i.i:            ; preds = %normal-return33.i.i.i.i.i.i
  %.idx.val.i.i107.i.i.i.i.i.i = load i8** %122, align 8, !noalias !199, !alias.scope !247
  call void @free(i8* %.idx.val.i.i107.i.i.i.i.i.i) #0, !noalias !250
  br label %"_ZN59core..option..Option$LT$collections..vec..Vec$LT$u8$GT$$GT$15glue_drop.4039417h40dc57aae4afd541E.exit105.i.i.i.i.i.i"

"_ZN59core..option..Option$LT$collections..vec..Vec$LT$u8$GT$$GT$15glue_drop.4039417h40dc57aae4afd541E.exit105.i.i.i.i.i.i": ; preds = %then-block-132942-.i.i108.i.i.i.i.i.i, %normal-return33.i.i.i.i.i.i
  call void @llvm.lifetime.end(i64 12, i8* %121), !noalias !199
  br label %loop_body25.i.i.i.i.i.i

"_ZN59core..option..Option$LT$collections..vec..Vec$LT$u8$GT$$GT$15glue_drop.4039417h40dc57aae4afd541E.exit98.i.i.i.i.i.i": ; preds = %then-block-132942-.i.i68.i.i.i.i.i.i.i, %unwind_custom_.i.nonloopexit.i.i.i.i.i.i
  %.fca.0.extract66.i.i.i.i.i.i = extractvalue { i8*, i32 } %lpad.nonloopexit215.i.i.i.i.i.i, 0
  %.fca.1.extract68.i.i.i.i.i.i = extractvalue { i8*, i32 } %lpad.nonloopexit215.i.i.i.i.i.i, 1
  call void @llvm.lifetime.end(i64 12, i8* %121), !noalias !199
  call void @llvm.lifetime.end(i64 12, i8* %120), !noalias !199
  br label %clean_ast_137104_.i.i.i.i.i.i

"_ZN59core..option..Option$LT$collections..vec..Vec$LT$u8$GT$$GT$15glue_drop.4039417h40dc57aae4afd541E.exit.i.i.i.i.i.i": ; preds = %normal-return26.i.i.i.i.i.i
  call void @llvm.lifetime.end(i64 12, i8* %121), !noalias !199
  call void @llvm.lifetime.end(i64 12, i8* %120), !noalias !199
  br label %_ZN2rt4args3imp18load_argc_and_argv20he98faae1bbace972Q4GE.exit.i.i.i

_ZN2rt4args3imp18load_argc_and_argv20he98faae1bbace972Q4GE.exit.i.i.i: ; preds = %"_ZN59core..option..Option$LT$collections..vec..Vec$LT$u8$GT$$GT$15glue_drop.4039417h40dc57aae4afd541E.exit.i.i.i.i.i.i", %normal-return18.i.i.i.i.i.i
  %vector.sroa.24.0.copyload205.i.i.i.i.i.i = phi i32 [ %vector.sroa.24.0.copyload202.i59.i.i.i.i.i, %normal-return18.i.i.i.i.i.i ], [ %vector.sroa.24.0.copyload204.i.i.i.i.i.i, %"_ZN59core..option..Option$LT$collections..vec..Vec$LT$u8$GT$$GT$15glue_drop.4039417h40dc57aae4afd541E.exit.i.i.i.i.i.i" ]
  %vector.sroa.13.0.copyload198.i.i.i.i.i.i = phi i32 [ %vector.sroa.13.0.copyload195.i31.i.i.i.i.i, %normal-return18.i.i.i.i.i.i ], [ %vector.sroa.13.0.copyload197.i.i.i.i.i.i, %"_ZN59core..option..Option$LT$collections..vec..Vec$LT$u8$GT$$GT$15glue_drop.4039417h40dc57aae4afd541E.exit.i.i.i.i.i.i" ]
  %vector.sroa.0.0.194.i.i.i.i.i.i = phi i32 [ %vector.sroa.0.0.190.i61.i.i.i.i.i, %normal-return18.i.i.i.i.i.i ], [ %vector.sroa.0.0.189.i.i.i.i.i.i, %"_ZN59core..option..Option$LT$collections..vec..Vec$LT$u8$GT$$GT$15glue_drop.4039417h40dc57aae4afd541E.exit.i.i.i.i.i.i" ]
  call void @llvm.lifetime.end(i64 12, i8* %80), !noalias !199
  call void @llvm.lifetime.end(i64 4, i8* %78), !noalias !196
  %143 = load i16* bitcast ({ { { i8, [1 x i8] } }, i8 ()* }* @_ZN2rt12unwind_dummy9PANICKING20h5e648feb9c9f0756v6GE to i16*), align 8, !noalias !251
  %144 = trunc i16 %143 to i8
  %cond.i.i.i.i.i.i.i.i12.i = icmp eq i8 %144, 1
  %145 = lshr i16 %143, 8
  %146 = trunc i16 %145 to i8
  br i1 %cond.i.i.i.i.i.i.i.i12.i, label %_ZN4sync6poison4Flag6borrow20h8dd508e5643a92d5oHzE.exit.i.i.i.i.i, label %match_else.i.i.i.i.i.i.i.i13.i

match_else.i.i.i.i.i.i.i.i13.i:                   ; preds = %_ZN2rt4args3imp18load_argc_and_argv20he98faae1bbace972Q4GE.exit.i.i.i
  %147 = load i8 ()** getelementptr inbounds ({ { { i8, [1 x i8] } }, i8 ()* }* @_ZN2rt12unwind_dummy9PANICKING20h5e648feb9c9f0756v6GE, i32 0, i32 1), align 4, !noalias !251
  %148 = invoke i8 %147()
          to label %.noexc.i.i.i unwind label %unwind_custom_.i.i.i, !noalias !258

.noexc.i.i.i:                                     ; preds = %match_else.i.i.i.i.i.i.i.i13.i
  %.sroa.4.0.insert.ext.i.i.i.i.i.i.i.i.i14.i = zext i8 %148 to i16
  %.sroa.4.0.insert.shift.i.i.i.i.i.i.i.i.i15.i = shl nuw i16 %.sroa.4.0.insert.ext.i.i.i.i.i.i.i.i.i14.i, 8
  %.sroa.0.0.insert.insert.i.i.i.i.i.i.i.i.i16.i = or i16 %.sroa.4.0.insert.shift.i.i.i.i.i.i.i.i.i15.i, 1
  store i16 %.sroa.0.0.insert.insert.i.i.i.i.i.i.i.i.i16.i, i16* bitcast ({ { { i8, [1 x i8] } }, i8 ()* }* @_ZN2rt12unwind_dummy9PANICKING20h5e648feb9c9f0756v6GE to i16*), align 8, !noalias !251
  br label %_ZN4sync6poison4Flag6borrow20h8dd508e5643a92d5oHzE.exit.i.i.i.i.i

_ZN4sync6poison4Flag6borrow20h8dd508e5643a92d5oHzE.exit.i.i.i.i.i: ; preds = %.noexc.i.i.i, %_ZN2rt4args3imp18load_argc_and_argv20he98faae1bbace972Q4GE.exit.i.i.i
  %.0.idx.val.i.i.i.i.i.i.i.i17.i = phi i8 [ %146, %_ZN2rt4args3imp18load_argc_and_argv20he98faae1bbace972Q4GE.exit.i.i.i ], [ %148, %.noexc.i.i.i ]
  %149 = icmp ne i8 %.0.idx.val.i.i.i.i.i.i.i.i17.i, 0
  %150 = load i8* bitcast (i1* getelementptr inbounds ({ { %"2.core::marker::PhantomData<(&'static str, mithril::mithril::core::AttributeValue)>" }, { { i1 } } }* @_ZN2rt4args3imp4LOCK20ha30c6c0da1e2ff1cw1GE, i32 0, i32 1, i32 0, i32 0) to i8*), align 8, !range !76, !noalias !251
  %151 = load i8** bitcast (i32* @_ZN2rt4args3imp15GLOBAL_ARGS_PTR20h9042dc4b93922114t1GE to i8**), align 4, !noalias !258
  %152 = icmp eq i8* %151, null
  br i1 %152, label %next-block.i.i.i, label %normal-return5.i.i.i

unwind_custom_.i.i.i:                             ; preds = %match_else.i.i.i.i.i.i.i.i13.i
  %153 = landingpad { i8*, i32 } personality void ()* @rust_eh_personality
          cleanup
  %.fca.0.extract.i.i.i = extractvalue { i8*, i32 } %153, 0
  %.fca.1.extract.i.i.i = extractvalue { i8*, i32 } %153, 1
  br label %clean_custom_.i.i.i

clean_custom_.i.i.i:                              ; preds = %then-block-98209-.i.i.i.i.i.i.i.i, %join.i.i.i.i.i.i.i.i, %cond.i.i.i29.i.i.i, %then-block-98209-.i.i.i.i.i.i28.i, %join.i.i.i.i.i.i21.i, %cond.i.i.i.i.i, %unwind_custom_.i.i.i
  %.sroa.0.0.i.i.i = phi i8* [ %.fca.0.extract.i.i.i, %unwind_custom_.i.i.i ], [ %.sroa.0.1.i.i.i, %cond.i.i.i.i.i ], [ %.sroa.0.1.i.i.i, %join.i.i.i.i.i.i21.i ], [ %.sroa.0.1.i.i.i, %then-block-98209-.i.i.i.i.i.i28.i ], [ %.sroa.0.1.i.i.i, %cond.i.i.i29.i.i.i ], [ %.sroa.0.1.i.i.i, %join.i.i.i.i.i.i.i.i ], [ %.sroa.0.1.i.i.i, %then-block-98209-.i.i.i.i.i.i.i.i ]
  %.sroa.5.0.i.i.i = phi i32 [ %.fca.1.extract.i.i.i, %unwind_custom_.i.i.i ], [ %.sroa.5.1.i.i.i, %cond.i.i.i.i.i ], [ %.sroa.5.1.i.i.i, %join.i.i.i.i.i.i21.i ], [ %.sroa.5.1.i.i.i, %then-block-98209-.i.i.i.i.i.i28.i ], [ %.sroa.5.1.i.i.i, %cond.i.i.i29.i.i.i ], [ %.sroa.5.1.i.i.i, %join.i.i.i.i.i.i.i.i ], [ %.sroa.5.1.i.i.i, %then-block-98209-.i.i.i.i.i.i.i.i ]
  %154 = icmp eq i32 %vector.sroa.24.0.copyload205.i.i.i.i.i.i, 0
  br i1 %154, label %"_ZN60collections..vec..Vec$LT$collections..vec..Vec$LT$u8$GT$$GT$15glue_drop.4176217h65286e7e1f060224E.exit.i.i.i", label %then-block-132942-.i.i.i.i.i

then-block-132942-.i.i.i.i.i:                     ; preds = %clean_custom_.i.i.i
  %155 = inttoptr i32 %vector.sroa.0.0.194.i.i.i.i.i.i to %"3.collections::vec::Vec<u8>"*
  %156 = getelementptr inbounds %"3.collections::vec::Vec<u8>"* %155, i32 %vector.sroa.13.0.copyload198.i.i.i.i.i.i
  %157 = icmp eq i32 %vector.sroa.13.0.copyload198.i.i.i.i.i.i, 0
  %158 = inttoptr i32 %vector.sroa.0.0.194.i.i.i.i.i.i to i8*
  br i1 %157, label %clean_ast_132959_.i.i.i.i.i, label %"_ZN5slice36Iter$LT$$u27$a$C$$u20$T$GT$.Iterator4next20h4769895820461771395E.exit.i.i.i.i.i"

"_ZN5slice36Iter$LT$$u27$a$C$$u20$T$GT$.Iterator4next20h4769895820461771395E.exit.i.i.i.i.i": ; preds = %loop_body.backedge.i.i.i.i.i, %then-block-132942-.i.i.i.i.i
  %.idx.val2425.i.i.i.i.i = phi %"3.collections::vec::Vec<u8>"* [ %159, %loop_body.backedge.i.i.i.i.i ], [ %155, %then-block-132942-.i.i.i.i.i ]
  %159 = getelementptr inbounds %"3.collections::vec::Vec<u8>"* %.idx.val2425.i.i.i.i.i, i32 1
  %tmp.sroa.69.0..sroa_idx10.i.i.i.i.i.i = getelementptr inbounds %"3.collections::vec::Vec<u8>"* %.idx.val2425.i.i.i.i.i, i32 0, i32 2
  %tmp.sroa.69.0.copyload.i.i.i.i.i.i = load i32* %tmp.sroa.69.0..sroa_idx10.i.i.i.i.i.i, align 4, !noalias !259
  %160 = icmp eq i32 %tmp.sroa.69.0.copyload.i.i.i.i.i.i, 0
  br i1 %160, label %loop_body.backedge.i.i.i.i.i, label %then-block-132942-.i.i.i.i.i.i18.i

loop_body.backedge.i.i.i.i.i:                     ; preds = %then-block-132942-.i.i.i.i.i.i18.i, %"_ZN5slice36Iter$LT$$u27$a$C$$u20$T$GT$.Iterator4next20h4769895820461771395E.exit.i.i.i.i.i"
  %161 = icmp eq %"3.collections::vec::Vec<u8>"* %159, %156
  br i1 %161, label %clean_ast_132959_.i.i.i.i.i, label %"_ZN5slice36Iter$LT$$u27$a$C$$u20$T$GT$.Iterator4next20h4769895820461771395E.exit.i.i.i.i.i"

then-block-132942-.i.i.i.i.i.i18.i:               ; preds = %"_ZN5slice36Iter$LT$$u27$a$C$$u20$T$GT$.Iterator4next20h4769895820461771395E.exit.i.i.i.i.i"
  %tmp.sroa.0.0..sroa_idx.i.i.i.i.i.i = getelementptr inbounds %"3.collections::vec::Vec<u8>"* %.idx.val2425.i.i.i.i.i, i32 0, i32 0, i32 0, i32 0
  %tmp.sroa.0.0.copyload.i.i.i.i.i.i = load i8** %tmp.sroa.0.0..sroa_idx.i.i.i.i.i.i, align 4, !noalias !259
  call void @free(i8* %tmp.sroa.0.0.copyload.i.i.i.i.i.i) #0, !noalias !264
  br label %loop_body.backedge.i.i.i.i.i

clean_ast_132959_.i.i.i.i.i:                      ; preds = %loop_body.backedge.i.i.i.i.i, %then-block-132942-.i.i.i.i.i
  call void @free(i8* %158) #0, !noalias !267
  br label %"_ZN60collections..vec..Vec$LT$collections..vec..Vec$LT$u8$GT$$GT$15glue_drop.4176217h65286e7e1f060224E.exit.i.i.i"

"_ZN60collections..vec..Vec$LT$collections..vec..Vec$LT$u8$GT$$GT$15glue_drop.4176217h65286e7e1f060224E.exit.i.i.i": ; preds = %clean_ast_132959_.i.i.i.i.i, %clean_custom_.i.i.i
  %.fca.0.insert.i.i.i = insertvalue { i8*, i32 } undef, i8* %.sroa.0.0.i.i.i, 0
  %.fca.1.insert.i.i.i = insertvalue { i8*, i32 } %.fca.0.insert.i.i.i, i32 %.sroa.5.0.i.i.i, 1
  br label %"_ZN60collections..vec..Vec$LT$collections..vec..Vec$LT$u8$GT$$GT$15glue_drop.4176217h65286e7e1f060224E.exit21.i.body.i.i"

unwind_ast_126402_.i.i.i:                         ; preds = %normal-return5.i.i.i
  %162 = landingpad { i8*, i32 } personality void ()* @rust_eh_personality
          cleanup
  %.fca.0.extract20.i.i.i = extractvalue { i8*, i32 } %162, 0
  %.fca.1.extract22.i.i.i = extractvalue { i8*, i32 } %162, 1
  br label %clean_ast_126402_.i.i.i

clean_ast_126402_.i.i.i:                          ; preds = %unwind_custom_9.i.i.i, %unwind_ast_126402_.i.i.i
  %.sroa.0.1.i.i.i = phi i8* [ %.fca.0.extract20.i.i.i, %unwind_ast_126402_.i.i.i ], [ %.fca.0.extract24.i.i.i, %unwind_custom_9.i.i.i ]
  %.sroa.5.1.i.i.i = phi i32 [ %.fca.1.extract22.i.i.i, %unwind_ast_126402_.i.i.i ], [ %.fca.1.extract26.i.i.i, %unwind_custom_9.i.i.i ]
  %cond.i.i.i19.i = icmp eq i8 %150, 1
  br i1 %cond.i.i.i19.i, label %cond.i.i.i29.i.i.i, label %cond.i.i.i.i.i

cond.i.i.i.i.i:                                   ; preds = %clean_ast_126402_.i.i.i
  br i1 %149, label %clean_custom_.i.i.i, label %before_rhs.i.i.i.i.i.i23.i

join.i.i.i.i.i.i21.i:                             ; preds = %.noexc.i.i, %before_rhs.i.i.i.i.i.i23.i
  %.0.idx.val.i.i.i.i.i.i.i.i.i20.i = phi i8 [ %167, %before_rhs.i.i.i.i.i.i23.i ], [ %169, %.noexc.i.i ]
  %163 = icmp eq i8 %.0.idx.val.i.i.i.i.i.i.i.i.i20.i, 0
  br i1 %163, label %clean_custom_.i.i.i, label %then-block-98209-.i.i.i.i.i.i28.i

before_rhs.i.i.i.i.i.i23.i:                       ; preds = %cond.i.i.i.i.i
  %164 = load i16* bitcast ({ { { i8, [1 x i8] } }, i8 ()* }* @_ZN2rt12unwind_dummy9PANICKING20h5e648feb9c9f0756v6GE to i16*), align 8, !noalias !268
  %165 = trunc i16 %164 to i8
  %cond.i.i.i.i.i.i.i.i.i22.i = icmp eq i8 %165, 1
  %166 = lshr i16 %164, 8
  %167 = trunc i16 %166 to i8
  br i1 %cond.i.i.i.i.i.i.i.i.i22.i, label %join.i.i.i.i.i.i21.i, label %match_else.i.i.i.i.i.i.i.i.i24.i

match_else.i.i.i.i.i.i.i.i.i24.i:                 ; preds = %before_rhs.i.i.i.i.i.i23.i
  %168 = load i8 ()** getelementptr inbounds ({ { { i8, [1 x i8] } }, i8 ()* }* @_ZN2rt12unwind_dummy9PANICKING20h5e648feb9c9f0756v6GE, i32 0, i32 1), align 4, !noalias !268
  %169 = invoke i8 %168()
          to label %.noexc.i.i unwind label %"_ZN60collections..vec..Vec$LT$collections..vec..Vec$LT$u8$GT$$GT$15glue_drop.4176217h65286e7e1f060224E.exit21.i.i.i"

.noexc.i.i:                                       ; preds = %match_else.i.i.i.i.i.i.i.i.i24.i
  %.sroa.4.0.insert.ext.i.i.i.i.i.i.i.i.i.i25.i = zext i8 %169 to i16
  %.sroa.4.0.insert.shift.i.i.i.i.i.i.i.i.i.i26.i = shl nuw i16 %.sroa.4.0.insert.ext.i.i.i.i.i.i.i.i.i.i25.i, 8
  %.sroa.0.0.insert.insert.i.i.i.i.i.i.i.i.i.i27.i = or i16 %.sroa.4.0.insert.shift.i.i.i.i.i.i.i.i.i.i26.i, 1
  store i16 %.sroa.0.0.insert.insert.i.i.i.i.i.i.i.i.i.i27.i, i16* bitcast ({ { { i8, [1 x i8] } }, i8 ()* }* @_ZN2rt12unwind_dummy9PANICKING20h5e648feb9c9f0756v6GE to i16*), align 8, !noalias !268
  br label %join.i.i.i.i.i.i21.i

then-block-98209-.i.i.i.i.i.i28.i:                ; preds = %join.i.i.i.i.i.i21.i
  store i8 1, i8* bitcast (i1* getelementptr inbounds ({ { %"2.core::marker::PhantomData<(&'static str, mithril::mithril::core::AttributeValue)>" }, { { i1 } } }* @_ZN2rt4args3imp4LOCK20ha30c6c0da1e2ff1cw1GE, i32 0, i32 1, i32 0, i32 0) to i8*), align 8, !noalias !268
  br label %clean_custom_.i.i.i

cond.i.i.i29.i.i.i:                               ; preds = %clean_ast_126402_.i.i.i
  br i1 %149, label %clean_custom_.i.i.i, label %before_rhs.i.i.i.i.i.i.i.i

join.i.i.i.i.i.i.i.i:                             ; preds = %.noexc1.i.i, %before_rhs.i.i.i.i.i.i.i.i
  %.0.idx.val.i.i.i.i.i.i.i.i.i.i.i = phi i8 [ %174, %before_rhs.i.i.i.i.i.i.i.i ], [ %176, %.noexc1.i.i ]
  %170 = icmp eq i8 %.0.idx.val.i.i.i.i.i.i.i.i.i.i.i, 0
  br i1 %170, label %clean_custom_.i.i.i, label %then-block-98209-.i.i.i.i.i.i.i.i

before_rhs.i.i.i.i.i.i.i.i:                       ; preds = %cond.i.i.i29.i.i.i
  %171 = load i16* bitcast ({ { { i8, [1 x i8] } }, i8 ()* }* @_ZN2rt12unwind_dummy9PANICKING20h5e648feb9c9f0756v6GE to i16*), align 8, !noalias !273
  %172 = trunc i16 %171 to i8
  %cond.i.i.i.i.i.i.i.i.i.i.i = icmp eq i8 %172, 1
  %173 = lshr i16 %171, 8
  %174 = trunc i16 %173 to i8
  br i1 %cond.i.i.i.i.i.i.i.i.i.i.i, label %join.i.i.i.i.i.i.i.i, label %match_else.i.i.i.i.i.i.i.i.i.i.i

match_else.i.i.i.i.i.i.i.i.i.i.i:                 ; preds = %before_rhs.i.i.i.i.i.i.i.i
  %175 = load i8 ()** getelementptr inbounds ({ { { i8, [1 x i8] } }, i8 ()* }* @_ZN2rt12unwind_dummy9PANICKING20h5e648feb9c9f0756v6GE, i32 0, i32 1), align 4, !noalias !273
  %176 = invoke i8 %175()
          to label %.noexc1.i.i unwind label %"_ZN60collections..vec..Vec$LT$collections..vec..Vec$LT$u8$GT$$GT$15glue_drop.4176217h65286e7e1f060224E.exit21.i.i.i"

.noexc1.i.i:                                      ; preds = %match_else.i.i.i.i.i.i.i.i.i.i.i
  %.sroa.4.0.insert.ext.i.i.i.i.i.i.i.i.i.i.i.i = zext i8 %176 to i16
  %.sroa.4.0.insert.shift.i.i.i.i.i.i.i.i.i.i.i.i = shl nuw i16 %.sroa.4.0.insert.ext.i.i.i.i.i.i.i.i.i.i.i.i, 8
  %.sroa.0.0.insert.insert.i.i.i.i.i.i.i.i.i.i.i.i = or i16 %.sroa.4.0.insert.shift.i.i.i.i.i.i.i.i.i.i.i.i, 1
  store i16 %.sroa.0.0.insert.insert.i.i.i.i.i.i.i.i.i.i.i.i, i16* bitcast ({ { { i8, [1 x i8] } }, i8 ()* }* @_ZN2rt12unwind_dummy9PANICKING20h5e648feb9c9f0756v6GE to i16*), align 8, !noalias !273
  br label %join.i.i.i.i.i.i.i.i

then-block-98209-.i.i.i.i.i.i.i.i:                ; preds = %join.i.i.i.i.i.i.i.i
  store i8 1, i8* bitcast (i1* getelementptr inbounds ({ { %"2.core::marker::PhantomData<(&'static str, mithril::mithril::core::AttributeValue)>" }, { { i1 } } }* @_ZN2rt4args3imp4LOCK20ha30c6c0da1e2ff1cw1GE, i32 0, i32 1, i32 0, i32 0) to i8*), align 8, !noalias !273
  br label %clean_custom_.i.i.i

normal-return5.i.i.i:                             ; preds = %_ZN4sync6poison4Flag6borrow20h8dd508e5643a92d5oHzE.exit.i.i.i.i.i
  %177 = bitcast %"2.core::fmt::Arguments"* %2 to i8*
  call void @llvm.lifetime.start(i64 24, i8* %177), !noalias !258
  %178 = load i64* bitcast ({ %str_slice*, i32 }* @_ZN2rt11at_exit_imp4init15__STATIC_FMTSTR20hd053235b0f393fc3EgHE to i64*), align 8, !noalias !258
  %179 = bitcast [1 x %"2.core::fmt::ArgumentV1"]* %3 to i8*
  call void @llvm.lifetime.start(i64 8, i8* %179), !noalias !258
  %180 = getelementptr inbounds [1 x %"2.core::fmt::ArgumentV1"]* %3, i32 0, i32 0, i32 1
  %181 = bitcast i8 (%"2.core::marker::PhantomData<(&'static str, mithril::mithril::core::AttributeValue)>"*, %"2.core::fmt::Formatter"*)** %180 to i8 (%str_slice*, %"2.core::fmt::Formatter"*)**
  store i8 (%str_slice*, %"2.core::fmt::Formatter"*)* @"_ZN3fmt25_$RF$$u27$a$u20$T.Display3fmt20h3769726822176594404E", i8 (%str_slice*, %"2.core::fmt::Formatter"*)** %181, align 4, !noalias !278, !alias.scope !281
  %182 = bitcast [1 x %"2.core::fmt::ArgumentV1"]* %3 to %str_slice**
  store %str_slice* @ref126450, %str_slice** %182, align 8, !noalias !278, !alias.scope !281
  %183 = ptrtoint [1 x %"2.core::fmt::ArgumentV1"]* %3 to i32
  %184 = bitcast %"2.core::fmt::Arguments"* %2 to i64*
  store i64 %178, i64* %184, align 8, !noalias !283, !alias.scope !287
  %185 = getelementptr inbounds %"2.core::fmt::Arguments"* %2, i32 0, i32 1
  %186 = bitcast %"2.core::option::Option<&'static [core::fmt::rt::v1::Argument]>"* %185 to i64*
  store i64 0, i64* %186, align 8, !noalias !283, !alias.scope !287
  %.sroa_idx72.i.i.i = getelementptr inbounds %"2.core::fmt::Arguments"* %2, i32 0, i32 2
  %.sroa_cast73.i.i.i = bitcast { %"2.core::fmt::ArgumentV1"*, i32 }* %.sroa_idx72.i.i.i to i32*
  store i32 %183, i32* %.sroa_cast73.i.i.i, align 8, !noalias !258
  %.sroa_idx74.i.i.i = getelementptr inbounds %"2.core::fmt::Arguments"* %2, i32 0, i32 2, i32 1
  store i32 1, i32* %.sroa_idx74.i.i.i, align 4, !noalias !258
  invoke fastcc void @_ZN2rt4util5abort20h44d4f864d96d2f4aZWGE(%"2.core::fmt::Arguments"* noalias nocapture dereferenceable(24) %2)
          to label %normal-return6.i.i.i unwind label %unwind_ast_126402_.i.i.i, !noalias !258

normal-return6.i.i.i:                             ; preds = %normal-return5.i.i.i
  call void @llvm.lifetime.end(i64 24, i8* %177), !noalias !258
  unreachable

next-block.i.i.i:                                 ; preds = %_ZN4sync6poison4Flag6borrow20h8dd508e5643a92d5oHzE.exit.i.i.i.i.i
  %187 = call i8* @malloc(i32 12), !noalias !258
  %188 = icmp eq i8* %187, null
  br i1 %188, label %then-block-131330-.i.i.i.i, label %normal-return7.i.i.i

then-block-131330-.i.i.i.i:                       ; preds = %next-block.i.i.i
  call fastcc void @_ZN3oom20h02f01d343467389cTUaE(), !noalias !258
  unreachable

normal-return7.i.i.i:                             ; preds = %next-block.i.i.i
  %189 = bitcast i8* %187 to %"2.collections::vec::Vec<collections::vec::Vec<u8>>"*
  %190 = inttoptr i32 %vector.sroa.0.0.194.i.i.i.i.i.i to %"3.collections::vec::Vec<u8>"*
  invoke fastcc void @"_ZN3vec18Vec$LT$T$GT$.Clone5clone21h14457699304485007596E"(%"2.collections::vec::Vec<collections::vec::Vec<u8>>"* noalias nocapture sret dereferenceable(12) %189, %"3.collections::vec::Vec<u8>"* %190, i32 %vector.sroa.13.0.copyload198.i.i.i.i.i.i)
          to label %normal-return8.i.i.i unwind label %unwind_custom_9.i.i.i, !noalias !258

normal-return8.i.i.i:                             ; preds = %normal-return7.i.i.i
  %191 = load i8** bitcast (i32* @_ZN2rt4args3imp15GLOBAL_ARGS_PTR20h9042dc4b93922114t1GE to i8**), align 4, !noalias !258
  %192 = icmp eq i8* %191, null
  br i1 %192, label %"_ZN99core..option..Option$LT$Box$LT$collections..vec..Vec$LT$collections..vec..Vec$LT$u8$GT$$GT$$GT$$GT$15glue_drop.4499117h3ecf81100508dd2dE.exit.i.i.i", label %cond.i.i46.i.i.i

cond.i.i46.i.i.i:                                 ; preds = %normal-return8.i.i.i
  %193 = getelementptr inbounds i8* %191, i32 8
  %194 = bitcast i8* %193 to i32*
  %195 = load i32* %194, align 4, !noalias !258, !alias.scope !289
  %196 = icmp eq i32 %195, 0
  br i1 %196, label %"_ZN60collections..vec..Vec$LT$collections..vec..Vec$LT$u8$GT$$GT$15glue_drop.4176217h65286e7e1f060224E.exit.i.i.i.i.i", label %then-block-132942-.i.i.i.i47.i.i.i

then-block-132942-.i.i.i.i47.i.i.i:               ; preds = %cond.i.i46.i.i.i
  %.idx.i.i.i.i.i.i.i = bitcast i8* %191 to %"3.collections::vec::Vec<u8>"**
  %.idx.val.i.i.i.i.i.i.i = load %"3.collections::vec::Vec<u8>"** %.idx.i.i.i.i.i.i.i, align 4, !noalias !258, !alias.scope !289, !nonnull !292
  %.idx15.i.i.i.i.i.i29.i = getelementptr i8* %191, i32 4
  %197 = bitcast i8* %.idx15.i.i.i.i.i.i29.i to i32*
  %.idx15.val.i.i.i.i.i.i30.i = load i32* %197, align 4, !noalias !258, !alias.scope !289
  %198 = getelementptr inbounds %"3.collections::vec::Vec<u8>"* %.idx.val.i.i.i.i.i.i.i, i32 %.idx15.val.i.i.i.i.i.i30.i
  %199 = icmp eq i32 %.idx15.val.i.i.i.i.i.i30.i, 0
  %200 = bitcast %"3.collections::vec::Vec<u8>"* %.idx.val.i.i.i.i.i.i.i to i8*
  br i1 %199, label %clean_ast_132959_.i.i.i.i.i.i39.i, label %"_ZN5slice36Iter$LT$$u27$a$C$$u20$T$GT$.Iterator4next20h4769895820461771395E.exit.i.i.i.i.i.i34.i"

"_ZN5slice36Iter$LT$$u27$a$C$$u20$T$GT$.Iterator4next20h4769895820461771395E.exit.i.i.i.i.i.i34.i": ; preds = %loop_body.backedge.i.i.i.i.i.i35.i, %then-block-132942-.i.i.i.i47.i.i.i
  %.idx.val2425.i.i.i.i.i.i31.i = phi %"3.collections::vec::Vec<u8>"* [ %201, %loop_body.backedge.i.i.i.i.i.i35.i ], [ %.idx.val.i.i.i.i.i.i.i, %then-block-132942-.i.i.i.i47.i.i.i ]
  %201 = getelementptr inbounds %"3.collections::vec::Vec<u8>"* %.idx.val2425.i.i.i.i.i.i31.i, i32 1
  %tmp.sroa.69.0..sroa_idx10.i.i.i.i.i.i.i32.i = getelementptr inbounds %"3.collections::vec::Vec<u8>"* %.idx.val2425.i.i.i.i.i.i31.i, i32 0, i32 2
  %tmp.sroa.69.0.copyload.i.i.i.i.i.i.i33.i = load i32* %tmp.sroa.69.0..sroa_idx10.i.i.i.i.i.i.i32.i, align 4, !noalias !293
  %202 = icmp eq i32 %tmp.sroa.69.0.copyload.i.i.i.i.i.i.i33.i, 0
  br i1 %202, label %loop_body.backedge.i.i.i.i.i.i35.i, label %then-block-132942-.i.i.i.i.i.i.i.i38.i

loop_body.backedge.i.i.i.i.i.i35.i:               ; preds = %then-block-132942-.i.i.i.i.i.i.i.i38.i, %"_ZN5slice36Iter$LT$$u27$a$C$$u20$T$GT$.Iterator4next20h4769895820461771395E.exit.i.i.i.i.i.i34.i"
  %203 = icmp eq %"3.collections::vec::Vec<u8>"* %201, %198
  br i1 %203, label %clean_ast_132959_.i.i.i.i.i.i39.i, label %"_ZN5slice36Iter$LT$$u27$a$C$$u20$T$GT$.Iterator4next20h4769895820461771395E.exit.i.i.i.i.i.i34.i"

then-block-132942-.i.i.i.i.i.i.i.i38.i:           ; preds = %"_ZN5slice36Iter$LT$$u27$a$C$$u20$T$GT$.Iterator4next20h4769895820461771395E.exit.i.i.i.i.i.i34.i"
  %tmp.sroa.0.0..sroa_idx.i.i.i.i.i.i.i36.i = getelementptr inbounds %"3.collections::vec::Vec<u8>"* %.idx.val2425.i.i.i.i.i.i31.i, i32 0, i32 0, i32 0, i32 0
  %tmp.sroa.0.0.copyload.i.i.i.i.i.i.i37.i = load i8** %tmp.sroa.0.0..sroa_idx.i.i.i.i.i.i.i36.i, align 4, !noalias !293
  call void @free(i8* %tmp.sroa.0.0.copyload.i.i.i.i.i.i.i37.i) #0, !noalias !296
  br label %loop_body.backedge.i.i.i.i.i.i35.i

clean_ast_132959_.i.i.i.i.i.i39.i:                ; preds = %loop_body.backedge.i.i.i.i.i.i35.i, %then-block-132942-.i.i.i.i47.i.i.i
  call void @free(i8* %200) #0, !noalias !299
  br label %"_ZN60collections..vec..Vec$LT$collections..vec..Vec$LT$u8$GT$$GT$15glue_drop.4176217h65286e7e1f060224E.exit.i.i.i.i.i"

"_ZN60collections..vec..Vec$LT$collections..vec..Vec$LT$u8$GT$$GT$15glue_drop.4176217h65286e7e1f060224E.exit.i.i.i.i.i": ; preds = %clean_ast_132959_.i.i.i.i.i.i39.i, %cond.i.i46.i.i.i
  call void @free(i8* %191) #0, !noalias !258
  br label %"_ZN99core..option..Option$LT$Box$LT$collections..vec..Vec$LT$collections..vec..Vec$LT$u8$GT$$GT$$GT$$GT$15glue_drop.4499117h3ecf81100508dd2dE.exit.i.i.i"

"_ZN99core..option..Option$LT$Box$LT$collections..vec..Vec$LT$collections..vec..Vec$LT$u8$GT$$GT$$GT$$GT$15glue_drop.4499117h3ecf81100508dd2dE.exit.i.i.i": ; preds = %"_ZN60collections..vec..Vec$LT$collections..vec..Vec$LT$u8$GT$$GT$15glue_drop.4176217h65286e7e1f060224E.exit.i.i.i.i.i", %normal-return8.i.i.i
  store i8* %187, i8** bitcast (i32* @_ZN2rt4args3imp15GLOBAL_ARGS_PTR20h9042dc4b93922114t1GE to i8**), align 4, !noalias !258
  %cond.i48.i.i.i = icmp eq i8 %150, 1
  br i1 %cond.i48.i.i.i, label %cond.i.i.i61.i.i.i, label %cond.i.i50.i.i.i

cond.i.i50.i.i.i:                                 ; preds = %"_ZN99core..option..Option$LT$Box$LT$collections..vec..Vec$LT$collections..vec..Vec$LT$u8$GT$$GT$$GT$$GT$15glue_drop.4499117h3ecf81100508dd2dE.exit.i.i.i"
  br i1 %149, label %"_ZN147core..result..Result$LT$sync..mutex..MutexGuard$LT$$LP$$RP$$GT$$C$$u20$sync..poison..PoisonError$LT$sync..mutex..MutexGuard$LT$$LP$$RP$$GT$$GT$$GT$15glue_drop.4018417h370edff9c3a0c8a1E.exit71.i.i.i", label %before_rhs.i.i.i.i54.i.i.i

join.i.i.i.i52.i.i.i:                             ; preds = %.noexc2.i.i, %before_rhs.i.i.i.i54.i.i.i
  %.0.idx.val.i.i.i.i.i.i.i51.i.i.i = phi i8 [ %208, %before_rhs.i.i.i.i54.i.i.i ], [ %210, %.noexc2.i.i ]
  %204 = icmp eq i8 %.0.idx.val.i.i.i.i.i.i.i51.i.i.i, 0
  br i1 %204, label %"_ZN147core..result..Result$LT$sync..mutex..MutexGuard$LT$$LP$$RP$$GT$$C$$u20$sync..poison..PoisonError$LT$sync..mutex..MutexGuard$LT$$LP$$RP$$GT$$GT$$GT$15glue_drop.4018417h370edff9c3a0c8a1E.exit71.i.i.i", label %then-block-98209-.i.i.i.i59.i.i.i

before_rhs.i.i.i.i54.i.i.i:                       ; preds = %cond.i.i50.i.i.i
  %205 = load i16* bitcast ({ { { i8, [1 x i8] } }, i8 ()* }* @_ZN2rt12unwind_dummy9PANICKING20h5e648feb9c9f0756v6GE to i16*), align 8, !noalias !300
  %206 = trunc i16 %205 to i8
  %cond.i.i.i.i.i.i.i53.i.i.i = icmp eq i8 %206, 1
  %207 = lshr i16 %205, 8
  %208 = trunc i16 %207 to i8
  br i1 %cond.i.i.i.i.i.i.i53.i.i.i, label %join.i.i.i.i52.i.i.i, label %match_else.i.i.i.i.i.i.i58.i.i.i

match_else.i.i.i.i.i.i.i58.i.i.i:                 ; preds = %before_rhs.i.i.i.i54.i.i.i
  %209 = load i8 ()** getelementptr inbounds ({ { { i8, [1 x i8] } }, i8 ()* }* @_ZN2rt12unwind_dummy9PANICKING20h5e648feb9c9f0756v6GE, i32 0, i32 1), align 4, !noalias !300
  %210 = invoke i8 %209()
          to label %.noexc2.i.i unwind label %"_ZN60collections..vec..Vec$LT$collections..vec..Vec$LT$u8$GT$$GT$15glue_drop.4176217h65286e7e1f060224E.exit21.i.i.i"

.noexc2.i.i:                                      ; preds = %match_else.i.i.i.i.i.i.i58.i.i.i
  %.sroa.4.0.insert.ext.i.i.i.i.i.i.i.i55.i.i.i = zext i8 %210 to i16
  %.sroa.4.0.insert.shift.i.i.i.i.i.i.i.i56.i.i.i = shl nuw i16 %.sroa.4.0.insert.ext.i.i.i.i.i.i.i.i55.i.i.i, 8
  %.sroa.0.0.insert.insert.i.i.i.i.i.i.i.i57.i.i.i = or i16 %.sroa.4.0.insert.shift.i.i.i.i.i.i.i.i56.i.i.i, 1
  store i16 %.sroa.0.0.insert.insert.i.i.i.i.i.i.i.i57.i.i.i, i16* bitcast ({ { { i8, [1 x i8] } }, i8 ()* }* @_ZN2rt12unwind_dummy9PANICKING20h5e648feb9c9f0756v6GE to i16*), align 8, !noalias !300
  br label %join.i.i.i.i52.i.i.i

then-block-98209-.i.i.i.i59.i.i.i:                ; preds = %join.i.i.i.i52.i.i.i
  store i8 1, i8* bitcast (i1* getelementptr inbounds ({ { %"2.core::marker::PhantomData<(&'static str, mithril::mithril::core::AttributeValue)>" }, { { i1 } } }* @_ZN2rt4args3imp4LOCK20ha30c6c0da1e2ff1cw1GE, i32 0, i32 1, i32 0, i32 0) to i8*), align 8, !noalias !300
  br label %"_ZN147core..result..Result$LT$sync..mutex..MutexGuard$LT$$LP$$RP$$GT$$C$$u20$sync..poison..PoisonError$LT$sync..mutex..MutexGuard$LT$$LP$$RP$$GT$$GT$$GT$15glue_drop.4018417h370edff9c3a0c8a1E.exit71.i.i.i"

cond.i.i.i61.i.i.i:                               ; preds = %"_ZN99core..option..Option$LT$Box$LT$collections..vec..Vec$LT$collections..vec..Vec$LT$u8$GT$$GT$$GT$$GT$15glue_drop.4499117h3ecf81100508dd2dE.exit.i.i.i"
  br i1 %149, label %"_ZN147core..result..Result$LT$sync..mutex..MutexGuard$LT$$LP$$RP$$GT$$C$$u20$sync..poison..PoisonError$LT$sync..mutex..MutexGuard$LT$$LP$$RP$$GT$$GT$$GT$15glue_drop.4018417h370edff9c3a0c8a1E.exit71.i.i.i", label %before_rhs.i.i.i.i.i65.i.i.i

join.i.i.i.i.i63.i.i.i:                           ; preds = %.noexc3.i.i, %before_rhs.i.i.i.i.i65.i.i.i
  %.0.idx.val.i.i.i.i.i.i.i.i62.i.i.i = phi i8 [ %215, %before_rhs.i.i.i.i.i65.i.i.i ], [ %217, %.noexc3.i.i ]
  %211 = icmp eq i8 %.0.idx.val.i.i.i.i.i.i.i.i62.i.i.i, 0
  br i1 %211, label %"_ZN147core..result..Result$LT$sync..mutex..MutexGuard$LT$$LP$$RP$$GT$$C$$u20$sync..poison..PoisonError$LT$sync..mutex..MutexGuard$LT$$LP$$RP$$GT$$GT$$GT$15glue_drop.4018417h370edff9c3a0c8a1E.exit71.i.i.i", label %then-block-98209-.i.i.i.i.i70.i.i.i

before_rhs.i.i.i.i.i65.i.i.i:                     ; preds = %cond.i.i.i61.i.i.i
  %212 = load i16* bitcast ({ { { i8, [1 x i8] } }, i8 ()* }* @_ZN2rt12unwind_dummy9PANICKING20h5e648feb9c9f0756v6GE to i16*), align 8, !noalias !305
  %213 = trunc i16 %212 to i8
  %cond.i.i.i.i.i.i.i.i64.i.i.i = icmp eq i8 %213, 1
  %214 = lshr i16 %212, 8
  %215 = trunc i16 %214 to i8
  br i1 %cond.i.i.i.i.i.i.i.i64.i.i.i, label %join.i.i.i.i.i63.i.i.i, label %match_else.i.i.i.i.i.i.i.i69.i.i.i

match_else.i.i.i.i.i.i.i.i69.i.i.i:               ; preds = %before_rhs.i.i.i.i.i65.i.i.i
  %216 = load i8 ()** getelementptr inbounds ({ { { i8, [1 x i8] } }, i8 ()* }* @_ZN2rt12unwind_dummy9PANICKING20h5e648feb9c9f0756v6GE, i32 0, i32 1), align 4, !noalias !305
  %217 = invoke i8 %216()
          to label %.noexc3.i.i unwind label %"_ZN60collections..vec..Vec$LT$collections..vec..Vec$LT$u8$GT$$GT$15glue_drop.4176217h65286e7e1f060224E.exit21.i.i.i"

.noexc3.i.i:                                      ; preds = %match_else.i.i.i.i.i.i.i.i69.i.i.i
  %.sroa.4.0.insert.ext.i.i.i.i.i.i.i.i.i66.i.i.i = zext i8 %217 to i16
  %.sroa.4.0.insert.shift.i.i.i.i.i.i.i.i.i67.i.i.i = shl nuw i16 %.sroa.4.0.insert.ext.i.i.i.i.i.i.i.i.i66.i.i.i, 8
  %.sroa.0.0.insert.insert.i.i.i.i.i.i.i.i.i68.i.i.i = or i16 %.sroa.4.0.insert.shift.i.i.i.i.i.i.i.i.i67.i.i.i, 1
  store i16 %.sroa.0.0.insert.insert.i.i.i.i.i.i.i.i.i68.i.i.i, i16* bitcast ({ { { i8, [1 x i8] } }, i8 ()* }* @_ZN2rt12unwind_dummy9PANICKING20h5e648feb9c9f0756v6GE to i16*), align 8, !noalias !305
  br label %join.i.i.i.i.i63.i.i.i

then-block-98209-.i.i.i.i.i70.i.i.i:              ; preds = %join.i.i.i.i.i63.i.i.i
  store i8 1, i8* bitcast (i1* getelementptr inbounds ({ { %"2.core::marker::PhantomData<(&'static str, mithril::mithril::core::AttributeValue)>" }, { { i1 } } }* @_ZN2rt4args3imp4LOCK20ha30c6c0da1e2ff1cw1GE, i32 0, i32 1, i32 0, i32 0) to i8*), align 8, !noalias !305
  br label %"_ZN147core..result..Result$LT$sync..mutex..MutexGuard$LT$$LP$$RP$$GT$$C$$u20$sync..poison..PoisonError$LT$sync..mutex..MutexGuard$LT$$LP$$RP$$GT$$GT$$GT$15glue_drop.4018417h370edff9c3a0c8a1E.exit71.i.i.i"

"_ZN147core..result..Result$LT$sync..mutex..MutexGuard$LT$$LP$$RP$$GT$$C$$u20$sync..poison..PoisonError$LT$sync..mutex..MutexGuard$LT$$LP$$RP$$GT$$GT$$GT$15glue_drop.4018417h370edff9c3a0c8a1E.exit71.i.i.i": ; preds = %then-block-98209-.i.i.i.i.i70.i.i.i, %join.i.i.i.i.i63.i.i.i, %cond.i.i.i61.i.i.i, %then-block-98209-.i.i.i.i59.i.i.i, %join.i.i.i.i52.i.i.i, %cond.i.i50.i.i.i
  %218 = icmp eq i32 %vector.sroa.24.0.copyload205.i.i.i.i.i.i, 0
  br i1 %218, label %_ZN2rt4args4init20hef5ef60614b3aacby0GE.exit.i, label %then-block-132942-.i.i34.i.i.i

then-block-132942-.i.i34.i.i.i:                   ; preds = %"_ZN147core..result..Result$LT$sync..mutex..MutexGuard$LT$$LP$$RP$$GT$$C$$u20$sync..poison..PoisonError$LT$sync..mutex..MutexGuard$LT$$LP$$RP$$GT$$GT$$GT$15glue_drop.4018417h370edff9c3a0c8a1E.exit71.i.i.i"
  %219 = getelementptr inbounds %"3.collections::vec::Vec<u8>"* %190, i32 %vector.sroa.13.0.copyload198.i.i.i.i.i.i
  %220 = icmp eq i32 %vector.sroa.13.0.copyload198.i.i.i.i.i.i, 0
  %221 = inttoptr i32 %vector.sroa.0.0.194.i.i.i.i.i.i to i8*
  br i1 %220, label %clean_ast_132959_.i.i43.i.i.i, label %"_ZN5slice36Iter$LT$$u27$a$C$$u20$T$GT$.Iterator4next20h4769895820461771395E.exit.i.i38.i.i.i"

"_ZN5slice36Iter$LT$$u27$a$C$$u20$T$GT$.Iterator4next20h4769895820461771395E.exit.i.i38.i.i.i": ; preds = %loop_body.backedge.i.i39.i.i.i, %then-block-132942-.i.i34.i.i.i
  %.idx.val2425.i.i35.i.i.i = phi %"3.collections::vec::Vec<u8>"* [ %222, %loop_body.backedge.i.i39.i.i.i ], [ %190, %then-block-132942-.i.i34.i.i.i ]
  %222 = getelementptr inbounds %"3.collections::vec::Vec<u8>"* %.idx.val2425.i.i35.i.i.i, i32 1
  %tmp.sroa.69.0..sroa_idx10.i.i.i36.i.i.i = getelementptr inbounds %"3.collections::vec::Vec<u8>"* %.idx.val2425.i.i35.i.i.i, i32 0, i32 2
  %tmp.sroa.69.0.copyload.i.i.i37.i.i.i = load i32* %tmp.sroa.69.0..sroa_idx10.i.i.i36.i.i.i, align 4, !noalias !310
  %223 = icmp eq i32 %tmp.sroa.69.0.copyload.i.i.i37.i.i.i, 0
  br i1 %223, label %loop_body.backedge.i.i39.i.i.i, label %then-block-132942-.i.i.i.i42.i.i.i

loop_body.backedge.i.i39.i.i.i:                   ; preds = %then-block-132942-.i.i.i.i42.i.i.i, %"_ZN5slice36Iter$LT$$u27$a$C$$u20$T$GT$.Iterator4next20h4769895820461771395E.exit.i.i38.i.i.i"
  %224 = icmp eq %"3.collections::vec::Vec<u8>"* %222, %219
  br i1 %224, label %clean_ast_132959_.i.i43.i.i.i, label %"_ZN5slice36Iter$LT$$u27$a$C$$u20$T$GT$.Iterator4next20h4769895820461771395E.exit.i.i38.i.i.i"

then-block-132942-.i.i.i.i42.i.i.i:               ; preds = %"_ZN5slice36Iter$LT$$u27$a$C$$u20$T$GT$.Iterator4next20h4769895820461771395E.exit.i.i38.i.i.i"
  %tmp.sroa.0.0..sroa_idx.i.i.i40.i.i.i = getelementptr inbounds %"3.collections::vec::Vec<u8>"* %.idx.val2425.i.i35.i.i.i, i32 0, i32 0, i32 0, i32 0
  %tmp.sroa.0.0.copyload.i.i.i41.i.i.i = load i8** %tmp.sroa.0.0..sroa_idx.i.i.i40.i.i.i, align 4, !noalias !310
  call void @free(i8* %tmp.sroa.0.0.copyload.i.i.i41.i.i.i) #0, !noalias !315
  br label %loop_body.backedge.i.i39.i.i.i

clean_ast_132959_.i.i43.i.i.i:                    ; preds = %loop_body.backedge.i.i39.i.i.i, %then-block-132942-.i.i34.i.i.i
  call void @free(i8* %221) #0, !noalias !318
  br label %_ZN2rt4args4init20hef5ef60614b3aacby0GE.exit.i

unwind_custom_9.i.i.i:                            ; preds = %normal-return7.i.i.i
  %225 = landingpad { i8*, i32 } personality void ()* @rust_eh_personality
          cleanup
  %.fca.0.extract24.i.i.i = extractvalue { i8*, i32 } %225, 0
  %.fca.1.extract26.i.i.i = extractvalue { i8*, i32 } %225, 1
  call void @free(i8* %187) #0, !noalias !258
  br label %clean_ast_126402_.i.i.i

"_ZN60collections..vec..Vec$LT$collections..vec..Vec$LT$u8$GT$$GT$15glue_drop.4176217h65286e7e1f060224E.exit21.i.i.i": ; preds = %match_else.i.i.i.i.i.i.i.i69.i.i.i, %match_else.i.i.i.i.i.i.i58.i.i.i, %match_else.i.i.i.i.i.i.i.i.i.i.i, %match_else.i.i.i.i.i.i.i.i.i24.i
  %226 = landingpad { i8*, i32 } personality void ()* @rust_eh_personality
          cleanup
  br label %"_ZN60collections..vec..Vec$LT$collections..vec..Vec$LT$u8$GT$$GT$15glue_drop.4176217h65286e7e1f060224E.exit21.i.body.i.i"

"_ZN60collections..vec..Vec$LT$collections..vec..Vec$LT$u8$GT$$GT$15glue_drop.4176217h65286e7e1f060224E.exit21.i.body.i.i": ; preds = %"_ZN60collections..vec..Vec$LT$collections..vec..Vec$LT$u8$GT$$GT$15glue_drop.4176217h65286e7e1f060224E.exit21.i.i.i", %"_ZN60collections..vec..Vec$LT$collections..vec..Vec$LT$u8$GT$$GT$15glue_drop.4176217h65286e7e1f060224E.exit.i.i.i"
  %eh.lpad-body.i.i = phi { i8*, i32 } [ %226, %"_ZN60collections..vec..Vec$LT$collections..vec..Vec$LT$u8$GT$$GT$15glue_drop.4176217h65286e7e1f060224E.exit21.i.i.i" ], [ %.fca.1.insert.i.i.i, %"_ZN60collections..vec..Vec$LT$collections..vec..Vec$LT$u8$GT$$GT$15glue_drop.4176217h65286e7e1f060224E.exit.i.i.i" ]
  resume { i8*, i32 } %eh.lpad-body.i.i

_ZN2rt4args4init20hef5ef60614b3aacby0GE.exit.i:   ; preds = %clean_ast_132959_.i.i43.i.i.i, %"_ZN147core..result..Result$LT$sync..mutex..MutexGuard$LT$$LP$$RP$$GT$$C$$u20$sync..poison..PoisonError$LT$sync..mutex..MutexGuard$LT$$LP$$RP$$GT$$GT$$GT$15glue_drop.4018417h370edff9c3a0c8a1E.exit71.i.i.i"
  %227 = bitcast i64* %res.i to i8*
  call void @llvm.lifetime.start(i64 8, i8* %227)
  %228 = load i16* bitcast ({ { { i8, [1 x i8] } }, i8 ()* }* @_ZN2rt12unwind_dummy9PANICKING20h5e648feb9c9f0756v6GE to i16*), align 8, !noalias !319
  %229 = trunc i16 %228 to i8
  %cond.i.i35.i = icmp eq i8 %229, 1
  %230 = lshr i16 %228, 8
  %231 = trunc i16 %230 to i8
  br i1 %cond.i.i35.i, label %"_ZN18thread_local_dummy12Key$LT$T$GT$4with20h5563707088764626973E.exit.i.i", label %match_else.i.i36.i

match_else.i.i36.i:                               ; preds = %_ZN2rt4args4init20hef5ef60614b3aacby0GE.exit.i
  %232 = load i8 ()** getelementptr inbounds ({ { { i8, [1 x i8] } }, i8 ()* }* @_ZN2rt12unwind_dummy9PANICKING20h5e648feb9c9f0756v6GE, i32 0, i32 1), align 4, !noalias !319
  %233 = call i8 %232(), !noalias !319
  %.sroa.4.0.insert.ext.i.i.i.i = zext i8 %233 to i16
  %.sroa.4.0.insert.shift.i.i.i.i = shl nuw i16 %.sroa.4.0.insert.ext.i.i.i.i, 8
  %.sroa.0.0.insert.insert.i.i.i.i = or i16 %.sroa.4.0.insert.shift.i.i.i.i, 1
  store i16 %.sroa.0.0.insert.insert.i.i.i.i, i16* bitcast ({ { { i8, [1 x i8] } }, i8 ()* }* @_ZN2rt12unwind_dummy9PANICKING20h5e648feb9c9f0756v6GE to i16*), align 8, !noalias !319
  br label %"_ZN18thread_local_dummy12Key$LT$T$GT$4with20h5563707088764626973E.exit.i.i"

"_ZN18thread_local_dummy12Key$LT$T$GT$4with20h5563707088764626973E.exit.i.i": ; preds = %match_else.i.i36.i, %_ZN2rt4args4init20hef5ef60614b3aacby0GE.exit.i
  %.0.idx.val.i.i.i = phi i8 [ %231, %_ZN2rt4args4init20hef5ef60614b3aacby0GE.exit.i ], [ %233, %match_else.i.i36.i ]
  %234 = icmp ne i8 %.0.idx.val.i.i.i, 0
  %235 = zext i1 %234 to i8
  store i8 0, i8* getelementptr inbounds ({ { { i8, [1 x i8] } }, i8 ()* }* @_ZN2rt12unwind_dummy9PANICKING20h5e648feb9c9f0756v6GE, i32 0, i32 0, i32 0, i32 1, i32 0), align 1, !noalias !319
  call fastcc void @_ZN4main20hfc53cbffee892dbekcaE(), !noalias !319
  %236 = load i8* getelementptr inbounds ({ { { i8, [1 x i8] } }, i8 ()* }* @_ZN2rt12unwind_dummy9PANICKING20h5e648feb9c9f0756v6GE, i32 0, i32 0, i32 0, i32 0), align 8, !range !76, !noalias !319
  %cond.i8.i.i = icmp eq i8 %236, 1
  br i1 %cond.i8.i.i, label %_ZN2rt12unwind_dummy3try20h3821779655222696105E.exit.i, label %match_else.i12.i.i

match_else.i12.i.i:                               ; preds = %"_ZN18thread_local_dummy12Key$LT$T$GT$4with20h5563707088764626973E.exit.i.i"
  %237 = load i8 ()** getelementptr inbounds ({ { { i8, [1 x i8] } }, i8 ()* }* @_ZN2rt12unwind_dummy9PANICKING20h5e648feb9c9f0756v6GE, i32 0, i32 1), align 4, !noalias !319
  %238 = call i8 %237(), !noalias !319
  %.sroa.4.0.insert.ext.i.i9.i.i = zext i8 %238 to i16
  %.sroa.4.0.insert.shift.i.i10.i.i = shl nuw i16 %.sroa.4.0.insert.ext.i.i9.i.i, 8
  %.sroa.0.0.insert.insert.i.i11.i.i = or i16 %.sroa.4.0.insert.shift.i.i10.i.i, 1
  store i16 %.sroa.0.0.insert.insert.i.i11.i.i, i16* bitcast ({ { { i8, [1 x i8] } }, i8 ()* }* @_ZN2rt12unwind_dummy9PANICKING20h5e648feb9c9f0756v6GE to i16*), align 8, !noalias !319
  br label %_ZN2rt12unwind_dummy3try20h3821779655222696105E.exit.i

_ZN2rt12unwind_dummy3try20h3821779655222696105E.exit.i: ; preds = %match_else.i12.i.i, %"_ZN18thread_local_dummy12Key$LT$T$GT$4with20h5563707088764626973E.exit.i.i"
  store i8 %235, i8* getelementptr inbounds ({ { { i8, [1 x i8] } }, i8 ()* }* @_ZN2rt12unwind_dummy9PANICKING20h5e648feb9c9f0756v6GE, i32 0, i32 0, i32 0, i32 1, i32 0), align 1, !noalias !319
  store i64 0, i64* %res.i, align 8, !alias.scope !319
  %239 = bitcast %"1.core::option::Option<collections::vec::Vec<collections::vec::Vec<u8>>>"* %10 to i8*
  call void @llvm.lifetime.start(i64 12, i8* %239)
  %240 = load i16* bitcast ({ { { i8, [1 x i8] } }, i8 ()* }* @_ZN2rt12unwind_dummy9PANICKING20h5e648feb9c9f0756v6GE to i16*), align 8, !noalias !322
  %241 = trunc i16 %240 to i8
  %cond.i.i.i.i.i.i.i.i = icmp eq i8 %241, 1
  %242 = lshr i16 %240, 8
  %243 = trunc i16 %242 to i8
  br i1 %cond.i.i.i.i.i.i.i.i, label %_ZN4sync6poison4Flag6borrow20h8dd508e5643a92d5oHzE.exit.i.i.i.i, label %match_else.i.i.i.i.i.i.i.i

match_else.i.i.i.i.i.i.i.i:                       ; preds = %_ZN2rt12unwind_dummy3try20h3821779655222696105E.exit.i
  %244 = load i8 ()** getelementptr inbounds ({ { { i8, [1 x i8] } }, i8 ()* }* @_ZN2rt12unwind_dummy9PANICKING20h5e648feb9c9f0756v6GE, i32 0, i32 1), align 4, !noalias !322
  %245 = invoke i8 %244()
          to label %.noexc2.i unwind label %unwind_ast_127511_.i

.noexc2.i:                                        ; preds = %match_else.i.i.i.i.i.i.i.i
  %.sroa.4.0.insert.ext.i.i.i.i.i.i.i.i.i = zext i8 %245 to i16
  %.sroa.4.0.insert.shift.i.i.i.i.i.i.i.i.i = shl nuw i16 %.sroa.4.0.insert.ext.i.i.i.i.i.i.i.i.i, 8
  %.sroa.0.0.insert.insert.i.i.i.i.i.i.i.i.i = or i16 %.sroa.4.0.insert.shift.i.i.i.i.i.i.i.i.i, 1
  store i16 %.sroa.0.0.insert.insert.i.i.i.i.i.i.i.i.i, i16* bitcast ({ { { i8, [1 x i8] } }, i8 ()* }* @_ZN2rt12unwind_dummy9PANICKING20h5e648feb9c9f0756v6GE to i16*), align 8, !noalias !322
  br label %_ZN4sync6poison4Flag6borrow20h8dd508e5643a92d5oHzE.exit.i.i.i.i

_ZN4sync6poison4Flag6borrow20h8dd508e5643a92d5oHzE.exit.i.i.i.i: ; preds = %.noexc2.i, %_ZN2rt12unwind_dummy3try20h3821779655222696105E.exit.i
  %.0.idx.val.i.i.i.i.i.i.i.i = phi i8 [ %243, %_ZN2rt12unwind_dummy3try20h3821779655222696105E.exit.i ], [ %245, %.noexc2.i ]
  %246 = icmp ne i8 %.0.idx.val.i.i.i.i.i.i.i.i, 0
  %247 = load i8* bitcast (i1* getelementptr inbounds ({ { %"2.core::marker::PhantomData<(&'static str, mithril::mithril::core::AttributeValue)>" }, { { i1 } } }* @_ZN2rt4args3imp4LOCK20ha30c6c0da1e2ff1cw1GE, i32 0, i32 1, i32 0, i32 0) to i8*), align 8, !range !76, !noalias !322
  %248 = load i8** bitcast (i32* @_ZN2rt4args3imp15GLOBAL_ARGS_PTR20h9042dc4b93922114t1GE to i8**), align 4, !noalias !329
  store i32 0, i32* @_ZN2rt4args3imp15GLOBAL_ARGS_PTR20h9042dc4b93922114t1GE, align 4, !noalias !329
  %249 = icmp eq i8* %248, null
  br i1 %249, label %normal-return3.thread.i.i, label %match_case.i.i.i

clean_ast_126356_.i.i:                            ; preds = %clean_ast_132959_.i.i.i.i.i.i, %cond.i.i38.i.i
  call void @free(i8* %248) #0, !noalias !332
  %cond.i14.i.i = icmp eq i8 %247, 1
  br i1 %cond.i14.i.i, label %cond.i.i.i27.i.i, label %cond.i.i16.i.i

cond.i.i16.i.i:                                   ; preds = %clean_ast_126356_.i.i
  br i1 %246, label %unwind_ast_127511_.body.i, label %before_rhs.i.i.i.i20.i.i

join.i.i.i.i18.i.i:                               ; preds = %.noexc3.i, %before_rhs.i.i.i.i20.i.i
  %.0.idx.val.i.i.i.i.i.i.i17.i.i = phi i8 [ %254, %before_rhs.i.i.i.i20.i.i ], [ %256, %.noexc3.i ]
  %250 = icmp eq i8 %.0.idx.val.i.i.i.i.i.i.i17.i.i, 0
  br i1 %250, label %unwind_ast_127511_.body.i, label %then-block-98209-.i.i.i.i25.i.i

before_rhs.i.i.i.i20.i.i:                         ; preds = %cond.i.i16.i.i
  %251 = load i16* bitcast ({ { { i8, [1 x i8] } }, i8 ()* }* @_ZN2rt12unwind_dummy9PANICKING20h5e648feb9c9f0756v6GE to i16*), align 8, !noalias !333
  %252 = trunc i16 %251 to i8
  %cond.i.i.i.i.i.i.i19.i.i = icmp eq i8 %252, 1
  %253 = lshr i16 %251, 8
  %254 = trunc i16 %253 to i8
  br i1 %cond.i.i.i.i.i.i.i19.i.i, label %join.i.i.i.i18.i.i, label %match_else.i.i.i.i.i.i.i24.i.i

match_else.i.i.i.i.i.i.i24.i.i:                   ; preds = %before_rhs.i.i.i.i20.i.i
  %255 = load i8 ()** getelementptr inbounds ({ { { i8, [1 x i8] } }, i8 ()* }* @_ZN2rt12unwind_dummy9PANICKING20h5e648feb9c9f0756v6GE, i32 0, i32 1), align 4, !noalias !333
  %256 = invoke i8 %255()
          to label %.noexc3.i unwind label %unwind_ast_127511_.i

.noexc3.i:                                        ; preds = %match_else.i.i.i.i.i.i.i24.i.i
  %.sroa.4.0.insert.ext.i.i.i.i.i.i.i.i21.i.i = zext i8 %256 to i16
  %.sroa.4.0.insert.shift.i.i.i.i.i.i.i.i22.i.i = shl nuw i16 %.sroa.4.0.insert.ext.i.i.i.i.i.i.i.i21.i.i, 8
  %.sroa.0.0.insert.insert.i.i.i.i.i.i.i.i23.i.i = or i16 %.sroa.4.0.insert.shift.i.i.i.i.i.i.i.i22.i.i, 1
  store i16 %.sroa.0.0.insert.insert.i.i.i.i.i.i.i.i23.i.i, i16* bitcast ({ { { i8, [1 x i8] } }, i8 ()* }* @_ZN2rt12unwind_dummy9PANICKING20h5e648feb9c9f0756v6GE to i16*), align 8, !noalias !333
  br label %join.i.i.i.i18.i.i

then-block-98209-.i.i.i.i25.i.i:                  ; preds = %join.i.i.i.i18.i.i
  store i8 1, i8* bitcast (i1* getelementptr inbounds ({ { %"2.core::marker::PhantomData<(&'static str, mithril::mithril::core::AttributeValue)>" }, { { i1 } } }* @_ZN2rt4args3imp4LOCK20ha30c6c0da1e2ff1cw1GE, i32 0, i32 1, i32 0, i32 0) to i8*), align 8, !noalias !333
  br label %unwind_ast_127511_.body.i

cond.i.i.i27.i.i:                                 ; preds = %clean_ast_126356_.i.i
  br i1 %246, label %unwind_ast_127511_.body.i, label %before_rhs.i.i.i.i.i31.i.i

join.i.i.i.i.i29.i.i:                             ; preds = %.noexc4.i, %before_rhs.i.i.i.i.i31.i.i
  %.0.idx.val.i.i.i.i.i.i.i.i28.i.i = phi i8 [ %261, %before_rhs.i.i.i.i.i31.i.i ], [ %263, %.noexc4.i ]
  %257 = icmp eq i8 %.0.idx.val.i.i.i.i.i.i.i.i28.i.i, 0
  br i1 %257, label %unwind_ast_127511_.body.i, label %then-block-98209-.i.i.i.i.i36.i.i

before_rhs.i.i.i.i.i31.i.i:                       ; preds = %cond.i.i.i27.i.i
  %258 = load i16* bitcast ({ { { i8, [1 x i8] } }, i8 ()* }* @_ZN2rt12unwind_dummy9PANICKING20h5e648feb9c9f0756v6GE to i16*), align 8, !noalias !338
  %259 = trunc i16 %258 to i8
  %cond.i.i.i.i.i.i.i.i30.i.i = icmp eq i8 %259, 1
  %260 = lshr i16 %258, 8
  %261 = trunc i16 %260 to i8
  br i1 %cond.i.i.i.i.i.i.i.i30.i.i, label %join.i.i.i.i.i29.i.i, label %match_else.i.i.i.i.i.i.i.i35.i.i

match_else.i.i.i.i.i.i.i.i35.i.i:                 ; preds = %before_rhs.i.i.i.i.i31.i.i
  %262 = load i8 ()** getelementptr inbounds ({ { { i8, [1 x i8] } }, i8 ()* }* @_ZN2rt12unwind_dummy9PANICKING20h5e648feb9c9f0756v6GE, i32 0, i32 1), align 4, !noalias !338
  %263 = invoke i8 %262()
          to label %.noexc4.i unwind label %unwind_ast_127511_.i

.noexc4.i:                                        ; preds = %match_else.i.i.i.i.i.i.i.i35.i.i
  %.sroa.4.0.insert.ext.i.i.i.i.i.i.i.i.i32.i.i = zext i8 %263 to i16
  %.sroa.4.0.insert.shift.i.i.i.i.i.i.i.i.i33.i.i = shl nuw i16 %.sroa.4.0.insert.ext.i.i.i.i.i.i.i.i.i32.i.i, 8
  %.sroa.0.0.insert.insert.i.i.i.i.i.i.i.i.i34.i.i = or i16 %.sroa.4.0.insert.shift.i.i.i.i.i.i.i.i.i33.i.i, 1
  store i16 %.sroa.0.0.insert.insert.i.i.i.i.i.i.i.i.i34.i.i, i16* bitcast ({ { { i8, [1 x i8] } }, i8 ()* }* @_ZN2rt12unwind_dummy9PANICKING20h5e648feb9c9f0756v6GE to i16*), align 8, !noalias !338
  br label %join.i.i.i.i.i29.i.i

then-block-98209-.i.i.i.i.i36.i.i:                ; preds = %join.i.i.i.i.i29.i.i
  store i8 1, i8* bitcast (i1* getelementptr inbounds ({ { %"2.core::marker::PhantomData<(&'static str, mithril::mithril::core::AttributeValue)>" }, { { i1 } } }* @_ZN2rt4args3imp4LOCK20ha30c6c0da1e2ff1cw1GE, i32 0, i32 1, i32 0, i32 0) to i8*), align 8, !noalias !338
  br label %unwind_ast_127511_.body.i

normal-return3.thread.i.i:                        ; preds = %_ZN4sync6poison4Flag6borrow20h8dd508e5643a92d5oHzE.exit.i.i.i.i
  call void @llvm.memset.p0i8.i32(i8* %239, i8 0, i32 12, i32 8, i1 false), !alias.scope !343
  br label %"_ZN99core..option..Option$LT$Box$LT$collections..vec..Vec$LT$collections..vec..Vec$LT$u8$GT$$GT$$GT$$GT$15glue_drop.4499117h3ecf81100508dd2dE.exit55.i.i"

match_case.i.i.i:                                 ; preds = %_ZN4sync6poison4Flag6borrow20h8dd508e5643a92d5oHzE.exit.i.i.i.i
  %264 = getelementptr inbounds %"1.core::option::Option<collections::vec::Vec<collections::vec::Vec<u8>>>"* %10, i32 0, i32 0
  %.val.idx.i.i.i = bitcast i8* %248 to %"3.collections::vec::Vec<u8>"**
  %.val.idx.val.i.i.i = load %"3.collections::vec::Vec<u8>"** %.val.idx.i.i.i, align 4, !noalias !346, !alias.scope !349
  %.val.idx1.i.i.i = getelementptr i8* %248, i32 4
  %265 = bitcast i8* %.val.idx1.i.i.i to i32*
  %.val.idx1.val.i.i.i = load i32* %265, align 4, !noalias !346, !alias.scope !349
  invoke fastcc void @"_ZN3vec18Vec$LT$T$GT$.Clone5clone21h14457699304485007596E"(%"2.collections::vec::Vec<collections::vec::Vec<u8>>"* noalias nocapture sret dereferenceable(12) %264, %"3.collections::vec::Vec<u8>"* %.val.idx.val.i.i.i, i32 %.val.idx1.val.i.i.i)
          to label %cond.i.i39.i.i unwind label %cond.i.i38.i.i

cond.i.i38.i.i:                                   ; preds = %match_case.i.i.i
  %266 = landingpad { i8*, i32 } personality void ()* @rust_eh_personality
          cleanup
  %267 = getelementptr inbounds i8* %248, i32 8
  %268 = bitcast i8* %267 to i32*
  %269 = load i32* %268, align 4, !noalias !332, !alias.scope !351
  %270 = icmp eq i32 %269, 0
  br i1 %270, label %clean_ast_126356_.i.i, label %then-block-132942-.i.i.i.i.i1.i

then-block-132942-.i.i.i.i.i1.i:                  ; preds = %cond.i.i38.i.i
  %.idx.val.i.i.i.i.i.i = load %"3.collections::vec::Vec<u8>"** %.val.idx.i.i.i, align 4, !noalias !332, !alias.scope !351, !nonnull !292
  %.idx15.val.i.i.i.i.i.i = load i32* %265, align 4, !noalias !332, !alias.scope !351
  %271 = getelementptr inbounds %"3.collections::vec::Vec<u8>"* %.idx.val.i.i.i.i.i.i, i32 %.idx15.val.i.i.i.i.i.i
  %272 = icmp eq i32 %.idx15.val.i.i.i.i.i.i, 0
  %273 = bitcast %"3.collections::vec::Vec<u8>"* %.idx.val.i.i.i.i.i.i to i8*
  br i1 %272, label %clean_ast_132959_.i.i.i.i.i.i, label %"_ZN5slice36Iter$LT$$u27$a$C$$u20$T$GT$.Iterator4next20h4769895820461771395E.exit.i.i.i.i.i.i"

"_ZN5slice36Iter$LT$$u27$a$C$$u20$T$GT$.Iterator4next20h4769895820461771395E.exit.i.i.i.i.i.i": ; preds = %loop_body.backedge.i.i.i.i.i.i, %then-block-132942-.i.i.i.i.i1.i
  %.idx.val2425.i.i.i.i.i.i = phi %"3.collections::vec::Vec<u8>"* [ %274, %loop_body.backedge.i.i.i.i.i.i ], [ %.idx.val.i.i.i.i.i.i, %then-block-132942-.i.i.i.i.i1.i ]
  %274 = getelementptr inbounds %"3.collections::vec::Vec<u8>"* %.idx.val2425.i.i.i.i.i.i, i32 1
  %tmp.sroa.69.0..sroa_idx10.i.i.i.i.i.i.i = getelementptr inbounds %"3.collections::vec::Vec<u8>"* %.idx.val2425.i.i.i.i.i.i, i32 0, i32 2
  %tmp.sroa.69.0.copyload.i.i.i.i.i.i.i = load i32* %tmp.sroa.69.0..sroa_idx10.i.i.i.i.i.i.i, align 4, !noalias !354
  %275 = icmp eq i32 %tmp.sroa.69.0.copyload.i.i.i.i.i.i.i, 0
  br i1 %275, label %loop_body.backedge.i.i.i.i.i.i, label %then-block-132942-.i.i.i.i.i.i.i.i

loop_body.backedge.i.i.i.i.i.i:                   ; preds = %then-block-132942-.i.i.i.i.i.i.i.i, %"_ZN5slice36Iter$LT$$u27$a$C$$u20$T$GT$.Iterator4next20h4769895820461771395E.exit.i.i.i.i.i.i"
  %276 = icmp eq %"3.collections::vec::Vec<u8>"* %274, %271
  br i1 %276, label %clean_ast_132959_.i.i.i.i.i.i, label %"_ZN5slice36Iter$LT$$u27$a$C$$u20$T$GT$.Iterator4next20h4769895820461771395E.exit.i.i.i.i.i.i"

then-block-132942-.i.i.i.i.i.i.i.i:               ; preds = %"_ZN5slice36Iter$LT$$u27$a$C$$u20$T$GT$.Iterator4next20h4769895820461771395E.exit.i.i.i.i.i.i"
  %tmp.sroa.0.0..sroa_idx.i.i.i.i.i.i.i = getelementptr inbounds %"3.collections::vec::Vec<u8>"* %.idx.val2425.i.i.i.i.i.i, i32 0, i32 0, i32 0, i32 0
  %tmp.sroa.0.0.copyload.i.i.i.i.i.i.i = load i8** %tmp.sroa.0.0..sroa_idx.i.i.i.i.i.i.i, align 4, !noalias !354
  call void @free(i8* %tmp.sroa.0.0.copyload.i.i.i.i.i.i.i) #0, !noalias !357
  br label %loop_body.backedge.i.i.i.i.i.i

clean_ast_132959_.i.i.i.i.i.i:                    ; preds = %loop_body.backedge.i.i.i.i.i.i, %then-block-132942-.i.i.i.i.i1.i
  call void @free(i8* %273) #0, !noalias !360
  br label %clean_ast_126356_.i.i

cond.i.i39.i.i:                                   ; preds = %match_case.i.i.i
  %277 = getelementptr inbounds i8* %248, i32 8
  %278 = bitcast i8* %277 to i32*
  %279 = load i32* %278, align 4, !noalias !332, !alias.scope !361
  %280 = icmp eq i32 %279, 0
  br i1 %280, label %"_ZN60collections..vec..Vec$LT$collections..vec..Vec$LT$u8$GT$$GT$15glue_drop.4176217h65286e7e1f060224E.exit.i.i54.i.i", label %then-block-132942-.i.i.i.i44.i.i

then-block-132942-.i.i.i.i44.i.i:                 ; preds = %cond.i.i39.i.i
  %.idx.val.i.i.i.i41.i.i = load %"3.collections::vec::Vec<u8>"** %.val.idx.i.i.i, align 4, !noalias !332, !alias.scope !361, !nonnull !292
  %.idx15.val.i.i.i.i43.i.i = load i32* %265, align 4, !noalias !332, !alias.scope !361
  %281 = getelementptr inbounds %"3.collections::vec::Vec<u8>"* %.idx.val.i.i.i.i41.i.i, i32 %.idx15.val.i.i.i.i43.i.i
  %282 = icmp eq i32 %.idx15.val.i.i.i.i43.i.i, 0
  %283 = bitcast %"3.collections::vec::Vec<u8>"* %.idx.val.i.i.i.i41.i.i to i8*
  br i1 %282, label %clean_ast_132959_.i.i.i.i53.i.i, label %"_ZN5slice36Iter$LT$$u27$a$C$$u20$T$GT$.Iterator4next20h4769895820461771395E.exit.i.i.i.i48.i.i"

"_ZN5slice36Iter$LT$$u27$a$C$$u20$T$GT$.Iterator4next20h4769895820461771395E.exit.i.i.i.i48.i.i": ; preds = %loop_body.backedge.i.i.i.i49.i.i, %then-block-132942-.i.i.i.i44.i.i
  %.idx.val2425.i.i.i.i45.i.i = phi %"3.collections::vec::Vec<u8>"* [ %284, %loop_body.backedge.i.i.i.i49.i.i ], [ %.idx.val.i.i.i.i41.i.i, %then-block-132942-.i.i.i.i44.i.i ]
  %284 = getelementptr inbounds %"3.collections::vec::Vec<u8>"* %.idx.val2425.i.i.i.i45.i.i, i32 1
  %tmp.sroa.69.0..sroa_idx10.i.i.i.i.i46.i.i = getelementptr inbounds %"3.collections::vec::Vec<u8>"* %.idx.val2425.i.i.i.i45.i.i, i32 0, i32 2
  %tmp.sroa.69.0.copyload.i.i.i.i.i47.i.i = load i32* %tmp.sroa.69.0..sroa_idx10.i.i.i.i.i46.i.i, align 4, !noalias !364
  %285 = icmp eq i32 %tmp.sroa.69.0.copyload.i.i.i.i.i47.i.i, 0
  br i1 %285, label %loop_body.backedge.i.i.i.i49.i.i, label %then-block-132942-.i.i.i.i.i.i52.i.i

loop_body.backedge.i.i.i.i49.i.i:                 ; preds = %then-block-132942-.i.i.i.i.i.i52.i.i, %"_ZN5slice36Iter$LT$$u27$a$C$$u20$T$GT$.Iterator4next20h4769895820461771395E.exit.i.i.i.i48.i.i"
  %286 = icmp eq %"3.collections::vec::Vec<u8>"* %284, %281
  br i1 %286, label %clean_ast_132959_.i.i.i.i53.i.i, label %"_ZN5slice36Iter$LT$$u27$a$C$$u20$T$GT$.Iterator4next20h4769895820461771395E.exit.i.i.i.i48.i.i"

then-block-132942-.i.i.i.i.i.i52.i.i:             ; preds = %"_ZN5slice36Iter$LT$$u27$a$C$$u20$T$GT$.Iterator4next20h4769895820461771395E.exit.i.i.i.i48.i.i"
  %tmp.sroa.0.0..sroa_idx.i.i.i.i.i50.i.i = getelementptr inbounds %"3.collections::vec::Vec<u8>"* %.idx.val2425.i.i.i.i45.i.i, i32 0, i32 0, i32 0, i32 0
  %tmp.sroa.0.0.copyload.i.i.i.i.i51.i.i = load i8** %tmp.sroa.0.0..sroa_idx.i.i.i.i.i50.i.i, align 4, !noalias !364
  call void @free(i8* %tmp.sroa.0.0.copyload.i.i.i.i.i51.i.i) #0, !noalias !367
  br label %loop_body.backedge.i.i.i.i49.i.i

clean_ast_132959_.i.i.i.i53.i.i:                  ; preds = %loop_body.backedge.i.i.i.i49.i.i, %then-block-132942-.i.i.i.i44.i.i
  call void @free(i8* %283) #0, !noalias !370
  br label %"_ZN60collections..vec..Vec$LT$collections..vec..Vec$LT$u8$GT$$GT$15glue_drop.4176217h65286e7e1f060224E.exit.i.i54.i.i"

"_ZN60collections..vec..Vec$LT$collections..vec..Vec$LT$u8$GT$$GT$15glue_drop.4176217h65286e7e1f060224E.exit.i.i54.i.i": ; preds = %clean_ast_132959_.i.i.i.i53.i.i, %cond.i.i39.i.i
  call void @free(i8* %248) #0, !noalias !332
  br label %"_ZN99core..option..Option$LT$Box$LT$collections..vec..Vec$LT$collections..vec..Vec$LT$u8$GT$$GT$$GT$$GT$15glue_drop.4499117h3ecf81100508dd2dE.exit55.i.i"

"_ZN99core..option..Option$LT$Box$LT$collections..vec..Vec$LT$collections..vec..Vec$LT$u8$GT$$GT$$GT$$GT$15glue_drop.4499117h3ecf81100508dd2dE.exit55.i.i": ; preds = %"_ZN60collections..vec..Vec$LT$collections..vec..Vec$LT$u8$GT$$GT$15glue_drop.4176217h65286e7e1f060224E.exit.i.i54.i.i", %normal-return3.thread.i.i
  %cond.i.i.i = icmp eq i8 %247, 1
  br i1 %cond.i.i.i, label %cond.i.i.i13.i.i, label %cond.i.i.i.i

cond.i.i.i.i:                                     ; preds = %"_ZN99core..option..Option$LT$Box$LT$collections..vec..Vec$LT$collections..vec..Vec$LT$u8$GT$$GT$$GT$$GT$15glue_drop.4499117h3ecf81100508dd2dE.exit55.i.i"
  br i1 %246, label %_ZN2rt4args3imp4take20h44c94e80705eb52241GE.exit.i, label %before_rhs.i.i.i.i.i.i

join.i.i.i.i.i.i:                                 ; preds = %.noexc5.i, %before_rhs.i.i.i.i.i.i
  %.0.idx.val.i.i.i.i.i.i.i.i.i = phi i8 [ %291, %before_rhs.i.i.i.i.i.i ], [ %293, %.noexc5.i ]
  %287 = icmp eq i8 %.0.idx.val.i.i.i.i.i.i.i.i.i, 0
  br i1 %287, label %_ZN2rt4args3imp4take20h44c94e80705eb52241GE.exit.i, label %then-block-98209-.i.i.i.i.i.i

before_rhs.i.i.i.i.i.i:                           ; preds = %cond.i.i.i.i
  %288 = load i16* bitcast ({ { { i8, [1 x i8] } }, i8 ()* }* @_ZN2rt12unwind_dummy9PANICKING20h5e648feb9c9f0756v6GE to i16*), align 8, !noalias !371
  %289 = trunc i16 %288 to i8
  %cond.i.i.i.i.i.i.i.i.i = icmp eq i8 %289, 1
  %290 = lshr i16 %288, 8
  %291 = trunc i16 %290 to i8
  br i1 %cond.i.i.i.i.i.i.i.i.i, label %join.i.i.i.i.i.i, label %match_else.i.i.i.i.i.i.i.i.i

match_else.i.i.i.i.i.i.i.i.i:                     ; preds = %before_rhs.i.i.i.i.i.i
  %292 = load i8 ()** getelementptr inbounds ({ { { i8, [1 x i8] } }, i8 ()* }* @_ZN2rt12unwind_dummy9PANICKING20h5e648feb9c9f0756v6GE, i32 0, i32 1), align 4, !noalias !371
  %293 = invoke i8 %292()
          to label %.noexc5.i unwind label %unwind_ast_127511_.i

.noexc5.i:                                        ; preds = %match_else.i.i.i.i.i.i.i.i.i
  %.sroa.4.0.insert.ext.i.i.i.i.i.i.i.i.i.i = zext i8 %293 to i16
  %.sroa.4.0.insert.shift.i.i.i.i.i.i.i.i.i.i = shl nuw i16 %.sroa.4.0.insert.ext.i.i.i.i.i.i.i.i.i.i, 8
  %.sroa.0.0.insert.insert.i.i.i.i.i.i.i.i.i.i = or i16 %.sroa.4.0.insert.shift.i.i.i.i.i.i.i.i.i.i, 1
  store i16 %.sroa.0.0.insert.insert.i.i.i.i.i.i.i.i.i.i, i16* bitcast ({ { { i8, [1 x i8] } }, i8 ()* }* @_ZN2rt12unwind_dummy9PANICKING20h5e648feb9c9f0756v6GE to i16*), align 8, !noalias !371
  br label %join.i.i.i.i.i.i

then-block-98209-.i.i.i.i.i.i:                    ; preds = %join.i.i.i.i.i.i
  store i8 1, i8* bitcast (i1* getelementptr inbounds ({ { %"2.core::marker::PhantomData<(&'static str, mithril::mithril::core::AttributeValue)>" }, { { i1 } } }* @_ZN2rt4args3imp4LOCK20ha30c6c0da1e2ff1cw1GE, i32 0, i32 1, i32 0, i32 0) to i8*), align 8, !noalias !371
  br label %_ZN2rt4args3imp4take20h44c94e80705eb52241GE.exit.i

cond.i.i.i13.i.i:                                 ; preds = %"_ZN99core..option..Option$LT$Box$LT$collections..vec..Vec$LT$collections..vec..Vec$LT$u8$GT$$GT$$GT$$GT$15glue_drop.4499117h3ecf81100508dd2dE.exit55.i.i"
  br i1 %246, label %_ZN2rt4args3imp4take20h44c94e80705eb52241GE.exit.i, label %before_rhs.i.i.i.i.i.i.i

join.i.i.i.i.i.i.i:                               ; preds = %.noexc6.i, %before_rhs.i.i.i.i.i.i.i
  %.0.idx.val.i.i.i.i.i.i.i.i.i.i = phi i8 [ %298, %before_rhs.i.i.i.i.i.i.i ], [ %300, %.noexc6.i ]
  %294 = icmp eq i8 %.0.idx.val.i.i.i.i.i.i.i.i.i.i, 0
  br i1 %294, label %_ZN2rt4args3imp4take20h44c94e80705eb52241GE.exit.i, label %then-block-98209-.i.i.i.i.i.i.i

before_rhs.i.i.i.i.i.i.i:                         ; preds = %cond.i.i.i13.i.i
  %295 = load i16* bitcast ({ { { i8, [1 x i8] } }, i8 ()* }* @_ZN2rt12unwind_dummy9PANICKING20h5e648feb9c9f0756v6GE to i16*), align 8, !noalias !376
  %296 = trunc i16 %295 to i8
  %cond.i.i.i.i.i.i.i.i.i.i = icmp eq i8 %296, 1
  %297 = lshr i16 %295, 8
  %298 = trunc i16 %297 to i8
  br i1 %cond.i.i.i.i.i.i.i.i.i.i, label %join.i.i.i.i.i.i.i, label %match_else.i.i.i.i.i.i.i.i.i.i

match_else.i.i.i.i.i.i.i.i.i.i:                   ; preds = %before_rhs.i.i.i.i.i.i.i
  %299 = load i8 ()** getelementptr inbounds ({ { { i8, [1 x i8] } }, i8 ()* }* @_ZN2rt12unwind_dummy9PANICKING20h5e648feb9c9f0756v6GE, i32 0, i32 1), align 4, !noalias !376
  %300 = invoke i8 %299()
          to label %.noexc6.i unwind label %unwind_ast_127511_.i

.noexc6.i:                                        ; preds = %match_else.i.i.i.i.i.i.i.i.i.i
  %.sroa.4.0.insert.ext.i.i.i.i.i.i.i.i.i.i.i = zext i8 %300 to i16
  %.sroa.4.0.insert.shift.i.i.i.i.i.i.i.i.i.i.i = shl nuw i16 %.sroa.4.0.insert.ext.i.i.i.i.i.i.i.i.i.i.i, 8
  %.sroa.0.0.insert.insert.i.i.i.i.i.i.i.i.i.i.i = or i16 %.sroa.4.0.insert.shift.i.i.i.i.i.i.i.i.i.i.i, 1
  store i16 %.sroa.0.0.insert.insert.i.i.i.i.i.i.i.i.i.i.i, i16* bitcast ({ { { i8, [1 x i8] } }, i8 ()* }* @_ZN2rt12unwind_dummy9PANICKING20h5e648feb9c9f0756v6GE to i16*), align 8, !noalias !376
  br label %join.i.i.i.i.i.i.i

then-block-98209-.i.i.i.i.i.i.i:                  ; preds = %join.i.i.i.i.i.i.i
  store i8 1, i8* bitcast (i1* getelementptr inbounds ({ { %"2.core::marker::PhantomData<(&'static str, mithril::mithril::core::AttributeValue)>" }, { { i1 } } }* @_ZN2rt4args3imp4LOCK20ha30c6c0da1e2ff1cw1GE, i32 0, i32 1, i32 0, i32 0) to i8*), align 8, !noalias !376
  br label %_ZN2rt4args3imp4take20h44c94e80705eb52241GE.exit.i

_ZN2rt4args3imp4take20h44c94e80705eb52241GE.exit.i: ; preds = %then-block-98209-.i.i.i.i.i.i.i, %join.i.i.i.i.i.i.i, %cond.i.i.i13.i.i, %then-block-98209-.i.i.i.i.i.i, %join.i.i.i.i.i.i, %cond.i.i.i.i
  %301 = getelementptr inbounds %"1.core::option::Option<collections::vec::Vec<collections::vec::Vec<u8>>>"* %10, i32 0, i32 0, i32 0, i32 0, i32 0
  %302 = load %"3.collections::vec::Vec<u8>"** %301, align 8
  %303 = icmp eq %"3.collections::vec::Vec<u8>"* %302, null
  br i1 %303, label %normal-return3.i, label %enum-iter-variant-1.i.i.i.i.i

enum-iter-variant-1.i.i.i.i.i:                    ; preds = %_ZN2rt4args3imp4take20h44c94e80705eb52241GE.exit.i
  %304 = getelementptr inbounds %"1.core::option::Option<collections::vec::Vec<collections::vec::Vec<u8>>>"* %10, i32 0, i32 0, i32 2
  %305 = load i32* %304, align 8, !alias.scope !381
  %306 = icmp eq i32 %305, 0
  br i1 %306, label %normal-return3.i, label %then-block-132942-.i.i.i.i.i.i.i

then-block-132942-.i.i.i.i.i.i.i:                 ; preds = %enum-iter-variant-1.i.i.i.i.i
  %.idx15.i.i.i.i.i.i.i = getelementptr %"1.core::option::Option<collections::vec::Vec<collections::vec::Vec<u8>>>"* %10, i32 0, i32 0, i32 1
  %.idx15.val.i.i.i.i.i.i.i = load i32* %.idx15.i.i.i.i.i.i.i, align 4, !alias.scope !381
  %307 = getelementptr inbounds %"3.collections::vec::Vec<u8>"* %302, i32 %.idx15.val.i.i.i.i.i.i.i
  %308 = icmp eq i32 %.idx15.val.i.i.i.i.i.i.i, 0
  %309 = bitcast %"3.collections::vec::Vec<u8>"* %302 to i8*
  br i1 %308, label %clean_ast_132959_.i.i.i.i.i.i.i, label %"_ZN5slice36Iter$LT$$u27$a$C$$u20$T$GT$.Iterator4next20h4769895820461771395E.exit.i.i.i.i.i.i.i"

"_ZN5slice36Iter$LT$$u27$a$C$$u20$T$GT$.Iterator4next20h4769895820461771395E.exit.i.i.i.i.i.i.i": ; preds = %loop_body.backedge.i.i.i.i.i.i.i, %then-block-132942-.i.i.i.i.i.i.i
  %.idx.val2425.i.i.i.i.i.i.i = phi %"3.collections::vec::Vec<u8>"* [ %310, %loop_body.backedge.i.i.i.i.i.i.i ], [ %302, %then-block-132942-.i.i.i.i.i.i.i ]
  %310 = getelementptr inbounds %"3.collections::vec::Vec<u8>"* %.idx.val2425.i.i.i.i.i.i.i, i32 1
  %tmp.sroa.69.0..sroa_idx10.i.i.i.i.i.i.i.i = getelementptr inbounds %"3.collections::vec::Vec<u8>"* %.idx.val2425.i.i.i.i.i.i.i, i32 0, i32 2
  %tmp.sroa.69.0.copyload.i.i.i.i.i.i.i.i = load i32* %tmp.sroa.69.0..sroa_idx10.i.i.i.i.i.i.i.i, align 4, !noalias !384
  %311 = icmp eq i32 %tmp.sroa.69.0.copyload.i.i.i.i.i.i.i.i, 0
  br i1 %311, label %loop_body.backedge.i.i.i.i.i.i.i, label %then-block-132942-.i.i.i.i.i.i.i.i.i

loop_body.backedge.i.i.i.i.i.i.i:                 ; preds = %then-block-132942-.i.i.i.i.i.i.i.i.i, %"_ZN5slice36Iter$LT$$u27$a$C$$u20$T$GT$.Iterator4next20h4769895820461771395E.exit.i.i.i.i.i.i.i"
  %312 = icmp eq %"3.collections::vec::Vec<u8>"* %310, %307
  br i1 %312, label %clean_ast_132959_.i.i.i.i.i.i.i, label %"_ZN5slice36Iter$LT$$u27$a$C$$u20$T$GT$.Iterator4next20h4769895820461771395E.exit.i.i.i.i.i.i.i"

then-block-132942-.i.i.i.i.i.i.i.i.i:             ; preds = %"_ZN5slice36Iter$LT$$u27$a$C$$u20$T$GT$.Iterator4next20h4769895820461771395E.exit.i.i.i.i.i.i.i"
  %tmp.sroa.0.0..sroa_idx.i.i.i.i.i.i.i.i = getelementptr inbounds %"3.collections::vec::Vec<u8>"* %.idx.val2425.i.i.i.i.i.i.i, i32 0, i32 0, i32 0, i32 0
  %tmp.sroa.0.0.copyload.i.i.i.i.i.i.i.i = load i8** %tmp.sroa.0.0..sroa_idx.i.i.i.i.i.i.i.i, align 4, !noalias !384
  call void @free(i8* %tmp.sroa.0.0.copyload.i.i.i.i.i.i.i.i) #0, !noalias !387
  br label %loop_body.backedge.i.i.i.i.i.i.i

clean_ast_132959_.i.i.i.i.i.i.i:                  ; preds = %loop_body.backedge.i.i.i.i.i.i.i, %then-block-132942-.i.i.i.i.i.i.i
  call void @free(i8* %309) #0, !noalias !381
  br label %normal-return3.i

unwind_ast_127511_.i:                             ; preds = %match_else.i.i.i.i.i.i.i.i.i.i, %match_else.i.i.i.i.i.i.i.i.i, %match_else.i.i.i.i.i.i.i.i35.i.i, %match_else.i.i.i.i.i.i.i24.i.i, %match_else.i.i.i.i.i.i.i.i
  %313 = landingpad { i8*, i32 } personality void ()* @rust_eh_personality
          cleanup
  br label %unwind_ast_127511_.body.i

unwind_ast_127511_.body.i:                        ; preds = %unwind_ast_127511_.i, %then-block-98209-.i.i.i.i.i36.i.i, %join.i.i.i.i.i29.i.i, %cond.i.i.i27.i.i, %then-block-98209-.i.i.i.i25.i.i, %join.i.i.i.i18.i.i, %cond.i.i16.i.i
  %eh.lpad-body.i = phi { i8*, i32 } [ %313, %unwind_ast_127511_.i ], [ %266, %then-block-98209-.i.i.i.i.i36.i.i ], [ %266, %join.i.i.i.i.i29.i.i ], [ %266, %cond.i.i.i27.i.i ], [ %266, %then-block-98209-.i.i.i.i25.i.i ], [ %266, %join.i.i.i.i18.i.i ], [ %266, %cond.i.i16.i.i ]
  %314 = bitcast i64* %res.i to i8**
  %315 = load i8** %314, align 8
  %316 = icmp eq i8* %315, null
  br i1 %316, label %"_ZN88core..result..Result$LT$$LP$$RP$$C$$u20$Box$LT$core..any..Any$u20$$u2b$$u20$Send$GT$$GT$15glue_drop.4509717h4d3ceeccd57d0a79E.exit32.i", label %cond.i.i31.i

cond.i.i31.i:                                     ; preds = %unwind_ast_127511_.body.i
  %317 = getelementptr inbounds %"thunk::Thunk<(), ()>"* %tmpcast.i, i32 0, i32 0, i32 1
  %318 = load void (i8*)*** %317, align 4
  %319 = load void (i8*)** %318, align 4
  call void %319(i8* %227)
  br label %"_ZN88core..result..Result$LT$$LP$$RP$$C$$u20$Box$LT$core..any..Any$u20$$u2b$$u20$Send$GT$$GT$15glue_drop.4509717h4d3ceeccd57d0a79E.exit32.i"

"_ZN88core..result..Result$LT$$LP$$RP$$C$$u20$Box$LT$core..any..Any$u20$$u2b$$u20$Send$GT$$GT$15glue_drop.4509717h4d3ceeccd57d0a79E.exit32.i": ; preds = %cond.i.i31.i, %unwind_ast_127511_.body.i
  call void @llvm.lifetime.end(i64 8, i8* %227)
  call void @llvm.lifetime.end(i64 4, i8* %11)
  resume { i8*, i32 } %eh.lpad-body.i

normal-return3.i:                                 ; preds = %clean_ast_132959_.i.i.i.i.i.i.i, %enum-iter-variant-1.i.i.i.i.i, %_ZN2rt4args3imp4take20h44c94e80705eb52241GE.exit.i
  call void @llvm.lifetime.end(i64 12, i8* %239)
  %res.idx.i = bitcast i64* %res.i to i8**
  %res.idx.val.i = load i8** %res.idx.i, align 8
  %320 = icmp eq i8* %res.idx.val.i, null
  br i1 %320, label %else-block4.i, label %"_ZN88core..result..Result$LT$$LP$$RP$$C$$u20$Box$LT$core..any..Any$u20$$u2b$$u20$Send$GT$$GT$15glue_drop.4509717h4d3ceeccd57d0a79E.exit.i"

"_ZN88core..result..Result$LT$$LP$$RP$$C$$u20$Box$LT$core..any..Any$u20$$u2b$$u20$Send$GT$$GT$15glue_drop.4509717h4d3ceeccd57d0a79E.exit.i": ; preds = %normal-return3.i
  %321 = getelementptr inbounds %"thunk::Thunk<(), ()>"* %tmpcast.i, i32 0, i32 0, i32 1
  %322 = load void (i8*)*** %321, align 4
  %323 = load void (i8*)** %322, align 4
  call void %323(i8* %227)
  call void @llvm.lifetime.end(i64 8, i8* %227)
  br label %_ZN2rt10lang_start20h72a4d0f0298d5d1dnjHE.exit

else-block4.i:                                    ; preds = %normal-return3.i
  call void @llvm.lifetime.end(i64 8, i8* %227)
  %324 = load atomic volatile i32* getelementptr inbounds ({ { i32 } }* @_ZN3env11EXIT_STATUS20hcb25fc92458a01d8KpoE, i32 0, i32 0, i32 0) seq_cst, align 8
  br label %_ZN2rt10lang_start20h72a4d0f0298d5d1dnjHE.exit

_ZN2rt10lang_start20h72a4d0f0298d5d1dnjHE.exit:   ; preds = %else-block4.i, %"_ZN88core..result..Result$LT$$LP$$RP$$C$$u20$Box$LT$core..any..Any$u20$$u2b$$u20$Send$GT$$GT$15glue_drop.4509717h4d3ceeccd57d0a79E.exit.i"
  %sret_slot.0.i = phi i32 [ %324, %else-block4.i ], [ 101, %"_ZN88core..result..Result$LT$$LP$$RP$$C$$u20$Box$LT$core..any..Any$u20$$u2b$$u20$Send$GT$$GT$15glue_drop.4509717h4d3ceeccd57d0a79E.exit.i" ]
  call void @llvm.lifetime.end(i64 4, i8* %11)
  ret i32 %sret_slot.0.i
}

; Function Attrs: nounwind
declare void @llvm.memmove.p0i8.p0i8.i32(i8* nocapture, i8* nocapture readonly, i32, i32, i1) #0

; Function Attrs: uwtable
define internal fastcc void @_ZN7mithril6render6render20he0cf844cb7c28175qcaE(%"8.webplatform::Document"* noalias readonly dereferenceable(4), i32 %.0.0.val, %"10.mithril::mithril::core::Node"* noalias nocapture dereferenceable(36)) unnamed_addr #1 {
entry-block:
  %2 = alloca %"10.mithril::mithril::core::Node", align 8
  %3 = alloca %"2.core::fmt::Arguments", align 8
  %4 = alloca %"10.mithril::mithril::core::Node", align 8
  %arena.i105 = alloca %"3.collections::vec::Vec<std::ffi::c_str::CString>", align 8
  %arg4.i106 = alloca i64, align 8
  %arg6.i = alloca i64, align 8
  %5 = alloca %"2.core::fmt::Arguments", align 8
  %6 = alloca [1 x %"2.core::fmt::ArgumentV1"], align 8
  %7 = alloca %"10.mithril::mithril::core::Node", align 8
  %8 = alloca %"10.mithril::mithril::core::Node", align 8
  %arena.i16 = alloca %"3.collections::vec::Vec<std::ffi::c_str::CString>", align 8
  %arg4.i = alloca i64, align 8
  %arena.i1 = alloca %"3.collections::vec::Vec<std::ffi::c_str::CString>", align 8
  %arg1.i = alloca i64, align 8
  %arena.i = alloca %"3.collections::vec::Vec<std::ffi::c_str::CString>", align 8
  %arg5.i = alloca i64, align 8
  %__uniq_fat_ptr.i = alloca i64, align 8
  %this = alloca %"8.webplatform::HtmlNode", align 8
  %9 = alloca %"3.collections::vec::IntoIter<mithril::core::Node>", align 8
  %arg44 = alloca %"10.mithril::mithril::core::Node", align 8
